(dp0
(S'ef5794f7b4fc0bdd1d5a6f6f151d33cc'
p1
S'2014-09-20'
p2
tp3
(S'smssend'
p4
(dp5
S'lseek'
p6
F0.0
sS'java.io.inputstreamreader->read'
p7
F0.0
sS'rt_sigtimedwait'
p8
F0.0
sS'uname'
p9
F0.0
sS'kill'
p10
F0.0
sS'javax.crypto.cipher->getinstance'
p11
F0.0
sS'android.telephony.telephonymanager->getdeviceid'
p12
F0.0
sS'write'
p13
F0.0
sS'java.io.bytearrayoutputstream->write'
p14
F0.0
sS'sys_248'
p15
F0.0
sS'sigreturn'
p16
F0.0
sS'android.telephony.telephonymanager->getsubscriberid'
p17
F0.0
sS'mmap'
p18
F0.0
sS'java.io.bufferedoutputstream->write'
p19
F0.0
sS'writev'
p20
F0.0
sS'sysopen'
p21
F0.0
sS'android.content.context->startservice'
p22
F0.0
sS'getpid'
p23
F0.0
sS'pivot_root'
p24
F0.0
sS'java.io.filewriter-><init>'
p25
F0.0
sS'android.net.uri->parse'
p26
F0.0
sS'java.net.httpurlconnection->connect'
p27
F0.0
sS'dup2'
p28
F0.0
sS'read'
p29
F0.0
sS'java.io.outputstreamwriter->append'
p30
F0.0
sS'getgid32'
p31
F0.0
sS'java.io.fileoutputstream->write'
p32
F0.0
sS'java.io.outputstream->write'
p33
F0.0
sS'semop'
p34
F0.0
sS'java.security.messagedigest->getinstance'
p35
F0.0
sS'org.apache.http.httphost-><init>'
p36
F0.0
sS'fsync'
p37
F0.0
sS'geteuid32'
p38
F0.0
sS'munmap'
p39
F0.0
sS'recvfrom'
p40
F0.0
sS'javax.crypto.spec.secretkeyspec-><init>'
p41
F0.0
sS'java.util.properties->getproperty'
p42
F0.0
sS'java.io.bufferedreader->readline'
p43
F0.0
sS'setup'
p44
F0.0
sS'android.content.pm.packagemanager->getinstalledapplications'
p45
F0.0
sS'java.io.dataoutputstream->write'
p46
F0.0
sS'android.app.activity->openfileoutput'
p47
F0.0
sS'java.security.messagedigest->update'
p48
F0.0
sS'android.widget.toast->maketext'
p49
F0.0
sS'syscall_983045'
p50
F0.0
sS'connect'
p51
F0.0
sS'getsockname'
p52
F0.0
sS'close'
p53
F0.0
sS'android.content.contentresolver->insert'
p54
F0.0
sS'android.location.locationmanager->requestlocationupdates'
p55
F0.0
sS'android.telephony.telephonymanager->getcelllocation'
p56
F0.0
sS'android.telephony.telephonymanager->getcallstate'
p57
F0.0
sS'android.database.sqlite.sqlitedatabase->query'
p58
F31.0
sS'javax.crypto.cipher->init'
p59
F0.0
sS'android.telephony.smsmanager->sendtextmessage'
p60
F0.0
sS'access'
p61
F0.0
sS'android.content.context->sendbroadcast'
p62
F0.0
sS'exit'
p63
F0.0
sS'android.app.alertdialog$builder->setmessage'
p64
F5.0
sS'socketpair'
p65
F0.0
sS'android.database.sqlite.sqlitedatabase->opendatabase'
p66
F0.0
sS'java.io.file-><init>'
p67
F6.0
sS'syscall_983042'
p68
F0.0
sS'org.apache.http.client.entity.urlencodedformentity-><init>'
p69
F0.0
sS'android.content.contentresolver->query'
p70
F0.0
sS'semget'
p71
F0.0
sS'javax.crypto.cipher->dofinal'
p72
F0.0
sS'sigaction'
p73
F0.0
sS'ipc_subcall'
p74
F0.0
sS'setsockopt'
p75
F0.0
sS'lstat64'
p76
F0.0
sS'msync'
p77
F0.0
sS'android.database.sqlite.sqlitedatabase->openorcreatedatabase'
p78
F0.0
sS'android.content.contentresolver->unregistercontentobserver'
p79
F0.0
sS'java.lang.processbuilder->start'
p80
F0.0
sS'times'
p81
F0.0
sS'java.io.bufferedreader->read'
p82
F0.0
sS'java.io.reader->read'
p83
F0.0
sS'_exit'
p84
F0.0
sS'java.io.bufferedwriter->write'
p85
F0.0
sS'chmod'
p86
F0.0
sS'brk'
p87
F0.0
sS'shutdown'
p88
F0.0
sS'pread'
p89
F0.0
sS'open'
p90
F0.0
sS'select'
p91
F0.0
sS'sigprocmask'
p92
F0.0
sS'getsockopt'
p93
F0.0
sS'org.apache.http.client.httpclient->execute'
p94
F0.0
sS'android.content.intent-><init>'
p95
F14.0
sS'java.net.urlconnection->connect'
p96
F0.0
sS'nanosleep'
p97
F0.0
sS'mkdir'
p98
F0.0
sS'java.lang.processbuilder-><init>'
p99
F0.0
sS'rmdir'
p100
F0.0
sS'dup'
p101
F0.0
sS'mprotect'
p102
F0.0
sS'java.io.filewriter->write'
p103
F0.0
sS'listen'
p104
F0.0
sS'android.content.contentresolver->notifychange'
p105
F0.0
sS'getuid32'
p106
F0.0
sS'rt_sigtimedwaitrt_sigtimedwait'
p107
F0.0
sS'android.content.contentresolver->delete'
p108
F0.0
sS'sched_getscheduler'
p109
F0.0
sS'android.content.contentresolver->update'
p110
F0.0
sS'java.net.url->openstream'
p111
F0.0
sS'fcntl64'
p112
F0.0
sS'java.lang.runtime->exec'
p113
F0.0
sS'execve'
p114
F0.0
sS'socket'
p115
F0.0
sS'wait4'
p116
F0.0
sS'getpriority'
p117
F0.0
sS'android.content.contentresolver->acquirecontentproviderclient'
p118
F0.0
sS'recv'
p119
F0.0
sS'fstat64'
p120
F0.0
sS'mount'
p121
F0.0
sS'java.io.filereader-><init>'
p122
F0.0
sS'java.net.uri-><init>'
p123
F0.0
sS'bind'
p124
F0.0
sS'android.telephony.telephonymanager->getsimoperator'
p125
F0.0
sS'ftruncate'
p126
F0.0
sS'rename'
p127
F0.0
sS'java.util.zip.gzipoutputstream->write'
p128
F0.0
sS'setpgid'
p129
F0.0
sS'java.security.messagedigest->digest'
p130
F0.0
sS'android.content.context->startactivity'
p131
F0.0
sS'getdents64'
p132
F0.0
sS'accept'
p133
F0.0
sS'java.net.url->openconnection'
p134
F0.0
sS'prctl'
p135
F0.0
sS'flock'
p136
F0.0
sS'stat64'
p137
F0.0
sS'pipe'
p138
F0.0
sS'sched_getparam'
p139
F0.0
sS'android.database.sqlite.sqlitedatabase->rawquery'
p140
F0.0
sS'java.io.filewriter->append'
p141
F0.0
sS'setpriority'
p142
F0.0
sS'recvmsg'
p143
F0.0
sS'getrlimit'
p144
F0.0
sS'msgget'
p145
F0.0
sS'nice'
p146
F0.0
sS'fork'
p147
F0.0
sS'android.content.intent->getaction'
p148
F0.0
sS'sched_yield'
p149
F0.0
sS'clone'
p150
F0.0
sS'android.content.contentresolver->openassetfiledescriptor'
p151
F0.0
sS'ioctl'
p152
F0.0
sS'readlink'
p153
F0.0
sS'android.content.res.assetmanager->open'
p154
F0.0
sS'unlink'
p155
F0.0
sS'sys_224'
p156
F0.0
sS'android.content.contentresolver->registercontentobserver'
p157
F0.0
sS'getegid32'
p158
F0.0
sS'android.content.intent->setdataandtype'
p159
F0.0
sS'java.io.outputstreamwriter->write'
p160
F0.0
sS'android.app.alertdialog$builder->settitle'
p161
F5.0
sS'gettimeofday'
p162
F0.0
sS'mmap2'
p163
F0.0
sS'chown'
p164
F0.0
sS'java.io.printwriter->write'
p165
F0.0
sS'org.apache.http.client.methods.httppost-><init>'
p166
F0.0
sS'java.net.url-><init>'
p167
F0.0
sS'java.io.writer->write'
p168
F0.0
stp169
s(S'05e027927df70c34a686f39cd825101e'
p170
S'2014-09-11'
p171
tp172
(S'trojan.js.iframe.avt'
p173
(dp174
g6
F0.0
sg7
F0.0
sg8
F0.0
sg9
F0.0
sg10
F0.0
sg11
F0.0
sg12
F69.0
sg13
F0.0
sg14
F0.0
sg15
F0.0
sg16
F0.0
sg17
F69.0
sg18
F0.0
sg19
F0.0
sg20
F0.0
sg21
F0.0
sg22
F0.0
sg23
F0.0
sg24
F0.0
sg25
F0.0
sg26
F0.0
sg27
F0.0
sg28
F0.0
sg29
F0.0
sg30
F0.0
sg31
F0.0
sg32
F0.0
sg33
F0.0
sg34
F0.0
sg35
F0.0
sg36
F0.0
sg37
F0.0
sg38
F0.0
sg39
F0.0
sg40
F0.0
sg41
F60.0
sg42
F0.0
sg43
F14697.0
sg44
F0.0
sg45
F0.0
sg46
F0.0
sg47
F0.0
sg48
F0.0
sg49
F0.0
sg50
F0.0
sg51
F0.0
sg52
F0.0
sg53
F0.0
sg54
F0.0
sg55
F0.0
sg56
F0.0
sg57
F0.0
sg58
F0.0
sg59
F0.0
sg60
F0.0
sg61
F10.0
sg62
F0.0
sg63
F0.0
sg64
F0.0
sg65
F0.0
sg66
F0.0
sg67
F0.0
sg68
F0.0
sg69
F60.0
sg70
F0.0
sg71
F0.0
sg72
F0.0
sg73
F0.0
sg74
F0.0
sg75
F0.0
sg76
F0.0
sg77
F0.0
sg78
F0.0
sg79
F0.0
sg80
F0.0
sg81
F0.0
sg82
F0.0
sg83
F0.0
sg84
F0.0
sg85
F0.0
sg86
F0.0
sg87
F0.0
sg88
F0.0
sg89
F0.0
sg90
F15.0
sg91
F0.0
sg92
F0.0
sg93
F0.0
sg94
F0.0
sg95
F69.0
sg96
F0.0
sg97
F0.0
sg98
F0.0
sg99
F0.0
sg100
F0.0
sg101
F0.0
sg102
F0.0
sg103
F0.0
sg104
F0.0
sg105
F0.0
sg106
F0.0
sg107
F0.0
sg108
F0.0
sg109
F0.0
sg110
F0.0
sg111
F0.0
sg112
F0.0
sg113
F0.0
sg114
F0.0
sg115
F0.0
sg116
F0.0
sg117
F0.0
sg118
F0.0
sg119
F0.0
sg120
F0.0
sg121
F0.0
sg122
F0.0
sg123
F0.0
sg124
F0.0
sg125
F0.0
sg126
F0.0
sg127
F0.0
sg128
F0.0
sg129
F0.0
sg130
F0.0
sg131
F0.0
sg132
F0.0
sg133
F0.0
sg134
F0.0
sg135
F0.0
sg136
F0.0
sg137
F0.0
sg138
F0.0
sg139
F0.0
sg140
F955.0
sg141
F0.0
sg142
F0.0
sg143
F0.0
sg144
F0.0
sg145
F0.0
sg146
F0.0
sg147
F0.0
sg148
F0.0
sg149
F0.0
sg150
F0.0
sg151
F0.0
sg152
F0.0
sg153
F0.0
sg154
F69.0
sg155
F0.0
sg156
F0.0
sg157
F0.0
sg158
F0.0
sg159
F0.0
sg160
F0.0
sg161
F0.0
sg162
F0.0
sg163
F0.0
sg164
F0.0
sg165
F0.0
sg166
F60.0
sg167
F0.0
sg168
F0.0
stp175
s(S'466a5023064e623f2222492bb3ea2bfc'
p176
S'2014-09-22'
p177
tp178
(S'copycat'
p179
(dp180
g6
F0.0
sg7
F0.0
sg8
F0.0
sg9
F0.0
sg10
F0.0
sg11
F0.0
sg12
F44.0
sg13
F0.0
sg14
F69.0
sg15
F0.0
sg16
F0.0
sg17
F22.0
sg18
F0.0
sg19
F0.0
sg20
F0.0
sg21
F0.0
sg22
F0.0
sg23
F0.0
sg24
F0.0
sg25
F1.0
sg26
F2.0
sg27
F0.0
sg28
F0.0
sg29
F0.0
sg30
F0.0
sg31
F0.0
sg32
F0.0
sg33
F8.0
sg34
F0.0
sg35
F52.0
sg36
F0.0
sg37
F0.0
sg38
F0.0
sg39
F0.0
sg40
F0.0
sg41
F0.0
sg42
F0.0
sg43
F0.0
sg44
F0.0
sg45
F0.0
sg46
F0.0
sg47
F0.0
sg48
F52.0
sg49
F1.0
sg50
F0.0
sg51
F0.0
sg52
F0.0
sg53
F0.0
sg54
F0.0
sg55
F0.0
sg56
F44.0
sg57
F0.0
sg58
F7.0
sg59
F0.0
sg60
F0.0
sg61
F0.0
sg62
F0.0
sg63
F0.0
sg64
F0.0
sg65
F0.0
sg66
F0.0
sg67
F58.0
sg68
F0.0
sg69
F0.0
sg70
F7.0
sg71
F0.0
sg72
F0.0
sg73
F0.0
sg74
F0.0
sg75
F0.0
sg76
F0.0
sg77
F0.0
sg78
F0.0
sg79
F3.0
sg80
F0.0
sg81
F0.0
sg82
F0.0
sg83
F0.0
sg84
F0.0
sg85
F0.0
sg86
F0.0
sg87
F0.0
sg88
F0.0
sg89
F0.0
sg90
F0.0
sg91
F0.0
sg92
F0.0
sg93
F0.0
sg94
F0.0
sg95
F13.0
sg96
F0.0
sg97
F0.0
sg98
F0.0
sg99
F0.0
sg100
F0.0
sg101
F0.0
sg102
F0.0
sg103
F0.0
sg104
F0.0
sg105
F9.0
sg106
F0.0
sg107
F0.0
sg108
F0.0
sg109
F0.0
sg110
F0.0
sg111
F0.0
sg112
F0.0
sg113
F0.0
sg114
F0.0
sg115
F0.0
sg116
F0.0
sg117
F0.0
sg118
F0.0
sg119
F0.0
sg120
F0.0
sg121
F0.0
sg122
F0.0
sg123
F0.0
sg124
F0.0
sg125
F3.0
sg126
F0.0
sg127
F0.0
sg128
F0.0
sg129
F0.0
sg130
F52.0
sg131
F0.0
sg132
F0.0
sg133
F0.0
sg134
F7.0
sg135
F0.0
sg136
F0.0
sg137
F0.0
sg138
F0.0
sg139
F0.0
sg140
F0.0
sg141
F0.0
sg142
F0.0
sg143
F0.0
sg144
F0.0
sg145
F0.0
sg146
F0.0
sg147
F0.0
sg148
F0.0
sg149
F0.0
sg150
F0.0
sg151
F0.0
sg152
F0.0
sg153
F0.0
sg154
F0.0
sg155
F0.0
sg156
F0.0
sg157
F3.0
sg158
F0.0
sg159
F0.0
sg160
F0.0
sg161
F0.0
sg162
F0.0
sg163
F0.0
sg164
F0.0
sg165
F0.0
sg166
F0.0
sg167
F7.0
sg168
F0.0
stp181
s(S'10f189d5ca8440492666c6bd80224063'
p182
S'2014-05-20'
p183
tp184
(S'generic'
p185
(dp186
g6
F0.0
sg7
F0.0
sg8
F0.0
sg9
F0.0
sg10
F0.0
sg11
F0.0
sg12
F0.0
sg13
F0.0
sg14
F0.0
sg15
F0.0
sg16
F0.0
sg17
F0.0
sg18
F0.0
sg19
F0.0
sg20
F0.0
sg21
F0.0
sg22
F0.0
sg23
F0.0
sg24
F0.0
sg25
F0.0
sg26
F0.0
sg27
F0.0
sg28
F0.0
sg29
F0.0
sg30
F0.0
sg31
F0.0
sg32
F0.0
sg33
F0.0
sg34
F0.0
sg35
F0.0
sg36
F0.0
sg37
F0.0
sg38
F0.0
sg39
F0.0
sg40
F0.0
sg41
F0.0
sg42
F0.0
sg43
F0.0
sg44
F0.0
sg45
F0.0
sg46
F0.0
sg47
F0.0
sg48
F0.0
sg49
F0.0
sg50
F0.0
sg51
F0.0
sg52
F0.0
sg53
F0.0
sg54
F0.0
sg55
F0.0
sg56
F0.0
sg57
F0.0
sg58
F0.0
sg59
F0.0
sg60
F0.0
sg61
F0.0
sg62
F0.0
sg63
F0.0
sg64
F0.0
sg65
F0.0
sg66
F0.0
sg67
F0.0
sg68
F0.0
sg69
F0.0
sg70
F0.0
sg71
F0.0
sg72
F0.0
sg73
F0.0
sg74
F0.0
sg75
F0.0
sg76
F0.0
sg77
F0.0
sg78
F0.0
sg79
F0.0
sg80
F0.0
sg81
F0.0
sg82
F0.0
sg83
F0.0
sg84
F0.0
sg85
F0.0
sg86
F0.0
sg87
F0.0
sg88
F0.0
sg89
F0.0
sg90
F0.0
sg91
F0.0
sg92
F0.0
sg93
F0.0
sg94
F0.0
sg95
F0.0
sg96
F0.0
sg97
F0.0
sg98
F0.0
sg99
F0.0
sg100
F0.0
sg101
F0.0
sg102
F0.0
sg103
F0.0
sg104
F0.0
sg105
F0.0
sg106
F0.0
sg107
F0.0
sg108
F0.0
sg109
F0.0
sg110
F0.0
sg111
F0.0
sg112
F0.0
sg113
F0.0
sg114
F0.0
sg115
F0.0
sg116
F0.0
sg117
F0.0
sg118
F0.0
sg119
F0.0
sg120
F0.0
sg121
F0.0
sg122
F0.0
sg123
F0.0
sg124
F0.0
sg125
F0.0
sg126
F0.0
sg127
F0.0
sg128
F0.0
sg129
F0.0
sg130
F0.0
sg131
F0.0
sg132
F0.0
sg133
F0.0
sg134
F0.0
sg135
F0.0
sg136
F0.0
sg137
F0.0
sg138
F0.0
sg139
F0.0
sg140
F0.0
sg141
F0.0
sg142
F0.0
sg143
F0.0
sg144
F0.0
sg145
F0.0
sg146
F0.0
sg147
F0.0
sg148
F0.0
sg149
F0.0
sg150
F0.0
sg151
F0.0
sg152
F0.0
sg153
F0.0
sg154
F94.0
sg155
F0.0
sg156
F0.0
sg157
F0.0
sg158
F0.0
sg159
F0.0
sg160
F0.0
sg161
F0.0
sg162
F0.0
sg163
F0.0
sg164
F0.0
sg165
F0.0
sg166
F0.0
sg167
F0.0
sg168
F0.0
stp187
s(S'0fd29e587b03ce0edd8c4367026e043d'
p188
S'2014-04-13'
p189
tp190
(S'androidos/genbl.0fd29e58!olympus'
p191
(dp192
g6
F0.0
sg7
F0.0
sg8
F0.0
sg9
F0.0
sg10
F0.0
sg11
F0.0
sg12
F0.0
sg13
F0.0
sg14
F0.0
sg15
F0.0
sg16
F0.0
sg17
F0.0
sg18
F0.0
sg19
F0.0
sg20
F0.0
sg21
F0.0
sg22
F0.0
sg23
F0.0
sg24
F0.0
sg25
F0.0
sg26
F4.0
sg27
F0.0
sg28
F0.0
sg29
F0.0
sg30
F0.0
sg31
F0.0
sg32
F0.0
sg33
F5.0
sg34
F0.0
sg35
F0.0
sg36
F0.0
sg37
F0.0
sg38
F0.0
sg39
F0.0
sg40
F0.0
sg41
F0.0
sg42
F0.0
sg43
F1695.0
sg44
F0.0
sg45
F0.0
sg46
F0.0
sg47
F0.0
sg48
F0.0
sg49
F22.0
sg50
F0.0
sg51
F0.0
sg52
F0.0
sg53
F0.0
sg54
F0.0
sg55
F0.0
sg56
F0.0
sg57
F0.0
sg58
F3.0
sg59
F0.0
sg60
F0.0
sg61
F0.0
sg62
F0.0
sg63
F0.0
sg64
F3.0
sg65
F0.0
sg66
F0.0
sg67
F0.0
sg68
F0.0
sg69
F0.0
sg70
F0.0
sg71
F0.0
sg72
F0.0
sg73
F0.0
sg74
F0.0
sg75
F0.0
sg76
F0.0
sg77
F0.0
sg78
F0.0
sg79
F0.0
sg80
F0.0
sg81
F0.0
sg82
F8.0
sg83
F0.0
sg84
F0.0
sg85
F0.0
sg86
F0.0
sg87
F0.0
sg88
F0.0
sg89
F0.0
sg90
F0.0
sg91
F0.0
sg92
F0.0
sg93
F0.0
sg94
F0.0
sg95
F25.0
sg96
F0.0
sg97
F0.0
sg98
F0.0
sg99
F0.0
sg100
F0.0
sg101
F0.0
sg102
F0.0
sg103
F0.0
sg104
F0.0
sg105
F0.0
sg106
F0.0
sg107
F0.0
sg108
F0.0
sg109
F0.0
sg110
F0.0
sg111
F3.0
sg112
F0.0
sg113
F0.0
sg114
F0.0
sg115
F0.0
sg116
F0.0
sg117
F0.0
sg118
F0.0
sg119
F0.0
sg120
F0.0
sg121
F0.0
sg122
F0.0
sg123
F0.0
sg124
F0.0
sg125
F0.0
sg126
F0.0
sg127
F0.0
sg128
F0.0
sg129
F0.0
sg130
F0.0
sg131
F0.0
sg132
F0.0
sg133
F0.0
sg134
F2.0
sg135
F0.0
sg136
F0.0
sg137
F0.0
sg138
F0.0
sg139
F0.0
sg140
F0.0
sg141
F0.0
sg142
F0.0
sg143
F0.0
sg144
F0.0
sg145
F0.0
sg146
F0.0
sg147
F0.0
sg148
F0.0
sg149
F0.0
sg150
F0.0
sg151
F0.0
sg152
F0.0
sg153
F0.0
sg154
F0.0
sg155
F0.0
sg156
F0.0
sg157
F0.0
sg158
F0.0
sg159
F0.0
sg160
F0.0
sg161
F3.0
sg162
F0.0
sg163
F0.0
sg164
F0.0
sg165
F0.0
sg166
F0.0
sg167
F5.0
sg168
F0.0
stp193
s(S'd4ef3cae07de21a41ceb133dcc3f3dbf'
p194
S'2014-10-08'
p195
tp196
(S'apprisk:generisk'
p197
(dp198
g6
F0.0
sg7
F0.0
sg8
F0.0
sg9
F0.0
sg10
F0.0
sg11
F0.0
sg12
F0.0
sg13
F0.0
sg14
F0.0
sg15
F0.0
sg16
F0.0
sg17
F0.0
sg18
F0.0
sg19
F0.0
sg20
F0.0
sg21
F0.0
sg22
F0.0
sg23
F0.0
sg24
F0.0
sg25
F0.0
sg26
F0.0
sg27
F0.0
sg28
F0.0
sg29
F0.0
sg30
F0.0
sg31
F0.0
sg32
F0.0
sg33
F0.0
sg34
F0.0
sg35
F0.0
sg36
F0.0
sg37
F0.0
sg38
F0.0
sg39
F0.0
sg40
F0.0
sg41
F0.0
sg42
F0.0
sg43
F0.0
sg44
F0.0
sg45
F0.0
sg46
F0.0
sg47
F0.0
sg48
F0.0
sg49
F0.0
sg50
F0.0
sg51
F0.0
sg52
F0.0
sg53
F0.0
sg54
F0.0
sg55
F0.0
sg56
F0.0
sg57
F0.0
sg58
F0.0
sg59
F0.0
sg60
F0.0
sg61
F0.0
sg62
F0.0
sg63
F0.0
sg64
F0.0
sg65
F0.0
sg66
F0.0
sg67
F74.0
sg68
F0.0
sg69
F0.0
sg70
F0.0
sg71
F0.0
sg72
F0.0
sg73
F0.0
sg74
F0.0
sg75
F0.0
sg76
F0.0
sg77
F0.0
sg78
F0.0
sg79
F0.0
sg80
F0.0
sg81
F0.0
sg82
F0.0
sg83
F0.0
sg84
F0.0
sg85
F0.0
sg86
F0.0
sg87
F0.0
sg88
F0.0
sg89
F0.0
sg90
F0.0
sg91
F0.0
sg92
F0.0
sg93
F0.0
sg94
F0.0
sg95
F0.0
sg96
F0.0
sg97
F0.0
sg98
F0.0
sg99
F0.0
sg100
F0.0
sg101
F0.0
sg102
F0.0
sg103
F0.0
sg104
F0.0
sg105
F0.0
sg106
F0.0
sg107
F0.0
sg108
F0.0
sg109
F0.0
sg110
F0.0
sg111
F0.0
sg112
F0.0
sg113
F0.0
sg114
F0.0
sg115
F0.0
sg116
F0.0
sg117
F0.0
sg118
F0.0
sg119
F0.0
sg120
F0.0
sg121
F0.0
sg122
F0.0
sg123
F0.0
sg124
F0.0
sg125
F0.0
sg126
F0.0
sg127
F0.0
sg128
F0.0
sg129
F0.0
sg130
F0.0
sg131
F0.0
sg132
F0.0
sg133
F0.0
sg134
F0.0
sg135
F0.0
sg136
F0.0
sg137
F0.0
sg138
F0.0
sg139
F0.0
sg140
F0.0
sg141
F0.0
sg142
F0.0
sg143
F0.0
sg144
F0.0
sg145
F0.0
sg146
F0.0
sg147
F0.0
sg148
F0.0
sg149
F0.0
sg150
F0.0
sg151
F0.0
sg152
F0.0
sg153
F0.0
sg154
F0.0
sg155
F0.0
sg156
F0.0
sg157
F0.0
sg158
F0.0
sg159
F0.0
sg160
F0.0
sg161
F0.0
sg162
F0.0
sg163
F0.0
sg164
F0.0
sg165
F0.0
sg166
F0.0
sg167
F0.0
sg168
F0.0
stp199
s(S'b7d8273ea4447ee8a54ed3038f86a234'
p200
S'2014-04-05'
p201
tp202
(S'generic'
p203
(dp204
g6
F0.0
sg7
F0.0
sg8
F0.0
sg9
F0.0
sg10
F0.0
sg11
F7.0
sg12
F1.0
sg13
F0.0
sg14
F0.0
sg15
F0.0
sg16
F0.0
sg17
F0.0
sg18
F0.0
sg19
F0.0
sg20
F0.0
sg21
F0.0
sg22
F0.0
sg23
F0.0
sg24
F0.0
sg25
F0.0
sg26
F0.0
sg27
F0.0
sg28
F0.0
sg29
F0.0
sg30
F0.0
sg31
F0.0
sg32
F0.0
sg33
F2.0
sg34
F0.0
sg35
F54.0
sg36
F0.0
sg37
F0.0
sg38
F0.0
sg39
F0.0
sg40
F0.0
sg41
F4.0
sg42
F0.0
sg43
F0.0
sg44
F0.0
sg45
F0.0
sg46
F6.0
sg47
F0.0
sg48
F54.0
sg49
F0.0
sg50
F0.0
sg51
F0.0
sg52
F0.0
sg53
F0.0
sg54
F0.0
sg55
F0.0
sg56
F0.0
sg57
F0.0
sg58
F0.0
sg59
F7.0
sg60
F0.0
sg61
F0.0
sg62
F0.0
sg63
F0.0
sg64
F0.0
sg65
F0.0
sg66
F0.0
sg67
F67.0
sg68
F0.0
sg69
F1.0
sg70
F0.0
sg71
F0.0
sg72
F7.0
sg73
F0.0
sg74
F0.0
sg75
F0.0
sg76
F0.0
sg77
F0.0
sg78
F0.0
sg79
F0.0
sg80
F0.0
sg81
F0.0
sg82
F0.0
sg83
F0.0
sg84
F0.0
sg85
F0.0
sg86
F0.0
sg87
F0.0
sg88
F0.0
sg89
F0.0
sg90
F0.0
sg91
F0.0
sg92
F0.0
sg93
F0.0
sg94
F0.0
sg95
F632.0
sg96
F0.0
sg97
F0.0
sg98
F0.0
sg99
F0.0
sg100
F0.0
sg101
F0.0
sg102
F0.0
sg103
F0.0
sg104
F0.0
sg105
F0.0
sg106
F0.0
sg107
F0.0
sg108
F0.0
sg109
F0.0
sg110
F0.0
sg111
F0.0
sg112
F0.0
sg113
F0.0
sg114
F0.0
sg115
F0.0
sg116
F0.0
sg117
F0.0
sg118
F0.0
sg119
F0.0
sg120
F0.0
sg121
F0.0
sg122
F0.0
sg123
F0.0
sg124
F0.0
sg125
F0.0
sg126
F0.0
sg127
F0.0
sg128
F0.0
sg129
F0.0
sg130
F54.0
sg131
F0.0
sg132
F0.0
sg133
F0.0
sg134
F0.0
sg135
F0.0
sg136
F0.0
sg137
F0.0
sg138
F0.0
sg139
F0.0
sg140
F0.0
sg141
F0.0
sg142
F0.0
sg143
F0.0
sg144
F0.0
sg145
F0.0
sg146
F0.0
sg147
F0.0
sg148
F487.0
sg149
F0.0
sg150
F0.0
sg151
F0.0
sg152
F0.0
sg153
F0.0
sg154
F0.0
sg155
F0.0
sg156
F0.0
sg157
F0.0
sg158
F0.0
sg159
F0.0
sg160
F0.0
sg161
F0.0
sg162
F0.0
sg163
F0.0
sg164
F0.0
sg165
F0.0
sg166
F1.0
sg167
F0.0
sg168
F0.0
stp205
s(S'249bb57ad863efb59c525c638966ded6'
p206
S'2014-02-12'
p207
tp208
(S'generic'
p209
(dp210
g6
F0.0
sg7
F0.0
sg8
F0.0
sg9
F0.0
sg10
F0.0
sg11
F171.0
sg12
F57.0
sg13
F0.0
sg14
F0.0
sg15
F0.0
sg16
F0.0
sg17
F57.0
sg18
F0.0
sg19
F0.0
sg20
F0.0
sg21
F0.0
sg22
F0.0
sg23
F0.0
sg24
F0.0
sg25
F0.0
sg26
F0.0
sg27
F0.0
sg28
F0.0
sg29
F0.0
sg30
F0.0
sg31
F0.0
sg32
F0.0
sg33
F0.0
sg34
F0.0
sg35
F0.0
sg36
F0.0
sg37
F0.0
sg38
F0.0
sg39
F0.0
sg40
F0.0
sg41
F0.0
sg42
F0.0
sg43
F0.0
sg44
F0.0
sg45
F0.0
sg46
F0.0
sg47
F0.0
sg48
F0.0
sg49
F0.0
sg50
F0.0
sg51
F0.0
sg52
F0.0
sg53
F0.0
sg54
F0.0
sg55
F0.0
sg56
F57.0
sg57
F0.0
sg58
F0.0
sg59
F171.0
sg60
F0.0
sg61
F0.0
sg62
F0.0
sg63
F0.0
sg64
F0.0
sg65
F0.0
sg66
F0.0
sg67
F0.0
sg68
F0.0
sg69
F113.0
sg70
F0.0
sg71
F0.0
sg72
F171.0
sg73
F0.0
sg74
F0.0
sg75
F0.0
sg76
F0.0
sg77
F0.0
sg78
F0.0
sg79
F0.0
sg80
F0.0
sg81
F0.0
sg82
F0.0
sg83
F0.0
sg84
F0.0
sg85
F0.0
sg86
F0.0
sg87
F0.0
sg88
F0.0
sg89
F0.0
sg90
F0.0
sg91
F0.0
sg92
F0.0
sg93
F0.0
sg94
F0.0
sg95
F0.0
sg96
F0.0
sg97
F0.0
sg98
F0.0
sg99
F0.0
sg100
F0.0
sg101
F0.0
sg102
F0.0
sg103
F0.0
sg104
F0.0
sg105
F0.0
sg106
F0.0
sg107
F0.0
sg108
F0.0
sg109
F0.0
sg110
F0.0
sg111
F0.0
sg112
F0.0
sg113
F0.0
sg114
F0.0
sg115
F0.0
sg116
F0.0
sg117
F0.0
sg118
F0.0
sg119
F0.0
sg120
F0.0
sg121
F0.0
sg122
F0.0
sg123
F0.0
sg124
F0.0
sg125
F0.0
sg126
F0.0
sg127
F0.0
sg128
F0.0
sg129
F0.0
sg130
F0.0
sg131
F0.0
sg132
F0.0
sg133
F0.0
sg134
F0.0
sg135
F0.0
sg136
F0.0
sg137
F0.0
sg138
F0.0
sg139
F0.0
sg140
F0.0
sg141
F0.0
sg142
F0.0
sg143
F0.0
sg144
F0.0
sg145
F0.0
sg146
F0.0
sg147
F0.0
sg148
F0.0
sg149
F0.0
sg150
F0.0
sg151
F0.0
sg152
F0.0
sg153
F0.0
sg154
F0.0
sg155
F0.0
sg156
F0.0
sg157
F0.0
sg158
F0.0
sg159
F0.0
sg160
F0.0
sg161
F0.0
sg162
F0.0
sg163
F0.0
sg164
F0.0
sg165
F0.0
sg166
F113.0
sg167
F0.0
sg168
F0.0
stp211
s(S'ab811bd49a0b33ceb5bc5500132e10f4'
p212
S'2014-06-06'
p213
tp214
(S'generic'
p215
(dp216
g6
F0.0
sg7
F0.0
sg8
F0.0
sg9
F0.0
sg10
F0.0
sg11
F0.0
sg12
F0.0
sg13
F0.0
sg14
F0.0
sg15
F0.0
sg16
F0.0
sg17
F0.0
sg18
F0.0
sg19
F0.0
sg20
F0.0
sg21
F0.0
sg22
F0.0
sg23
F0.0
sg24
F0.0
sg25
F0.0
sg26
F5.0
sg27
F0.0
sg28
F0.0
sg29
F0.0
sg30
F0.0
sg31
F0.0
sg32
F0.0
sg33
F0.0
sg34
F0.0
sg35
F0.0
sg36
F0.0
sg37
F0.0
sg38
F0.0
sg39
F0.0
sg40
F0.0
sg41
F0.0
sg42
F0.0
sg43
F25.0
sg44
F0.0
sg45
F0.0
sg46
F0.0
sg47
F0.0
sg48
F0.0
sg49
F0.0
sg50
F0.0
sg51
F0.0
sg52
F0.0
sg53
F0.0
sg54
F0.0
sg55
F0.0
sg56
F0.0
sg57
F0.0
sg58
F0.0
sg59
F0.0
sg60
F0.0
sg61
F0.0
sg62
F0.0
sg63
F0.0
sg64
F0.0
sg65
F0.0
sg66
F0.0
sg67
F0.0
sg68
F0.0
sg69
F0.0
sg70
F0.0
sg71
F0.0
sg72
F0.0
sg73
F0.0
sg74
F0.0
sg75
F0.0
sg76
F0.0
sg77
F0.0
sg78
F0.0
sg79
F0.0
sg80
F0.0
sg81
F0.0
sg82
F0.0
sg83
F0.0
sg84
F0.0
sg85
F0.0
sg86
F0.0
sg87
F0.0
sg88
F0.0
sg89
F0.0
sg90
F0.0
sg91
F0.0
sg92
F0.0
sg93
F0.0
sg94
F0.0
sg95
F1.0
sg96
F0.0
sg97
F0.0
sg98
F0.0
sg99
F0.0
sg100
F0.0
sg101
F0.0
sg102
F0.0
sg103
F0.0
sg104
F0.0
sg105
F0.0
sg106
F0.0
sg107
F0.0
sg108
F0.0
sg109
F0.0
sg110
F0.0
sg111
F0.0
sg112
F0.0
sg113
F0.0
sg114
F0.0
sg115
F0.0
sg116
F0.0
sg117
F0.0
sg118
F0.0
sg119
F0.0
sg120
F0.0
sg121
F0.0
sg122
F1.0
sg123
F0.0
sg124
F0.0
sg125
F0.0
sg126
F0.0
sg127
F0.0
sg128
F0.0
sg129
F0.0
sg130
F0.0
sg131
F0.0
sg132
F0.0
sg133
F0.0
sg134
F0.0
sg135
F0.0
sg136
F0.0
sg137
F0.0
sg138
F0.0
sg139
F0.0
sg140
F0.0
sg141
F0.0
sg142
F0.0
sg143
F0.0
sg144
F0.0
sg145
F0.0
sg146
F0.0
sg147
F0.0
sg148
F0.0
sg149
F0.0
sg150
F0.0
sg151
F0.0
sg152
F0.0
sg153
F0.0
sg154
F0.0
sg155
F0.0
sg156
F0.0
sg157
F0.0
sg158
F0.0
sg159
F0.0
sg160
F0.0
sg161
F0.0
sg162
F0.0
sg163
F0.0
sg164
F0.0
sg165
F0.0
sg166
F0.0
sg167
F0.0
sg168
F0.0
stp217
s(S'e2561bdab5f41e1992a6194c8382867b'
p218
S'2014-02-14'
p219
tp220
(S'smsreg'
p221
(dp222
g6
F0.0
sg7
F0.0
sg8
F0.0
sg9
F0.0
sg10
F0.0
sg11
F36.0
sg12
F0.0
sg13
F0.0
sg14
F0.0
sg15
F0.0
sg16
F0.0
sg17
F0.0
sg18
F0.0
sg19
F0.0
sg20
F0.0
sg21
F0.0
sg22
F0.0
sg23
F0.0
sg24
F0.0
sg25
F0.0
sg26
F0.0
sg27
F0.0
sg28
F0.0
sg29
F0.0
sg30
F0.0
sg31
F0.0
sg32
F0.0
sg33
F0.0
sg34
F0.0
sg35
F9.0
sg36
F0.0
sg37
F0.0
sg38
F0.0
sg39
F0.0
sg40
F0.0
sg41
F0.0
sg42
F0.0
sg43
F0.0
sg44
F0.0
sg45
F0.0
sg46
F0.0
sg47
F0.0
sg48
F0.0
sg49
F0.0
sg50
F0.0
sg51
F0.0
sg52
F0.0
sg53
F0.0
sg54
F0.0
sg55
F0.0
sg56
F0.0
sg57
F0.0
sg58
F0.0
sg59
F54.0
sg60
F0.0
sg61
F0.0
sg62
F0.0
sg63
F0.0
sg64
F18.0
sg65
F0.0
sg66
F0.0
sg67
F0.0
sg68
F0.0
sg69
F0.0
sg70
F0.0
sg71
F0.0
sg72
F18.0
sg73
F0.0
sg74
F0.0
sg75
F0.0
sg76
F0.0
sg77
F0.0
sg78
F0.0
sg79
F0.0
sg80
F0.0
sg81
F0.0
sg82
F0.0
sg83
F0.0
sg84
F0.0
sg85
F0.0
sg86
F0.0
sg87
F0.0
sg88
F0.0
sg89
F0.0
sg90
F0.0
sg91
F0.0
sg92
F0.0
sg93
F0.0
sg94
F0.0
sg95
F9.0
sg96
F0.0
sg97
F0.0
sg98
F0.0
sg99
F0.0
sg100
F0.0
sg101
F0.0
sg102
F0.0
sg103
F0.0
sg104
F0.0
sg105
F0.0
sg106
F0.0
sg107
F0.0
sg108
F0.0
sg109
F0.0
sg110
F0.0
sg111
F0.0
sg112
F0.0
sg113
F0.0
sg114
F0.0
sg115
F0.0
sg116
F0.0
sg117
F0.0
sg118
F0.0
sg119
F0.0
sg120
F0.0
sg121
F0.0
sg122
F0.0
sg123
F0.0
sg124
F0.0
sg125
F0.0
sg126
F0.0
sg127
F0.0
sg128
F0.0
sg129
F0.0
sg130
F9.0
sg131
F0.0
sg132
F0.0
sg133
F0.0
sg134
F0.0
sg135
F0.0
sg136
F0.0
sg137
F0.0
sg138
F0.0
sg139
F0.0
sg140
F0.0
sg141
F0.0
sg142
F0.0
sg143
F0.0
sg144
F0.0
sg145
F0.0
sg146
F0.0
sg147
F0.0
sg148
F0.0
sg149
F0.0
sg150
F0.0
sg151
F0.0
sg152
F0.0
sg153
F0.0
sg154
F0.0
sg155
F0.0
sg156
F0.0
sg157
F0.0
sg158
F0.0
sg159
F0.0
sg160
F0.0
sg161
F0.0
sg162
F0.0
sg163
F0.0
sg164
F0.0
sg165
F0.0
sg166
F0.0
sg167
F0.0
sg168
F0.0
stp223
s(S'1052777f56f722d53fd61a704ca519e5'
p224
S'2014-12-25'
p225
tp226
(S'trojan.js.iframe.avt'
p227
(dp228
g6
F0.0
sg7
F0.0
sg8
F0.0
sg9
F0.0
sg10
F0.0
sg11
F0.0
sg12
F0.0
sg13
F0.0
sg14
F0.0
sg15
F0.0
sg16
F0.0
sg17
F0.0
sg18
F0.0
sg19
F0.0
sg20
F0.0
sg21
F0.0
sg22
F0.0
sg23
F0.0
sg24
F0.0
sg25
F0.0
sg26
F14.0
sg27
F0.0
sg28
F0.0
sg29
F0.0
sg30
F0.0
sg31
F0.0
sg32
F166.0
sg33
F0.0
sg34
F0.0
sg35
F0.0
sg36
F0.0
sg37
F0.0
sg38
F0.0
sg39
F0.0
sg40
F0.0
sg41
F0.0
sg42
F100.0
sg43
F0.0
sg44
F0.0
sg45
F0.0
sg46
F0.0
sg47
F0.0
sg48
F0.0
sg49
F1.0
sg50
F0.0
sg51
F0.0
sg52
F0.0
sg53
F0.0
sg54
F0.0
sg55
F0.0
sg56
F0.0
sg57
F0.0
sg58
F0.0
sg59
F0.0
sg60
F0.0
sg61
F0.0
sg62
F0.0
sg63
F0.0
sg64
F0.0
sg65
F0.0
sg66
F0.0
sg67
F32.0
sg68
F0.0
sg69
F0.0
sg70
F0.0
sg71
F0.0
sg72
F0.0
sg73
F0.0
sg74
F0.0
sg75
F0.0
sg76
F0.0
sg77
F0.0
sg78
F0.0
sg79
F0.0
sg80
F0.0
sg81
F0.0
sg82
F0.0
sg83
F0.0
sg84
F0.0
sg85
F0.0
sg86
F0.0
sg87
F0.0
sg88
F0.0
sg89
F0.0
sg90
F0.0
sg91
F0.0
sg92
F0.0
sg93
F0.0
sg94
F0.0
sg95
F72.0
sg96
F0.0
sg97
F0.0
sg98
F0.0
sg99
F0.0
sg100
F0.0
sg101
F0.0
sg102
F0.0
sg103
F0.0
sg104
F0.0
sg105
F0.0
sg106
F0.0
sg107
F0.0
sg108
F0.0
sg109
F0.0
sg110
F0.0
sg111
F0.0
sg112
F0.0
sg113
F0.0
sg114
F0.0
sg115
F0.0
sg116
F0.0
sg117
F0.0
sg118
F0.0
sg119
F0.0
sg120
F0.0
sg121
F0.0
sg122
F0.0
sg123
F0.0
sg124
F0.0
sg125
F0.0
sg126
F0.0
sg127
F0.0
sg128
F0.0
sg129
F0.0
sg130
F0.0
sg131
F0.0
sg132
F0.0
sg133
F0.0
sg134
F0.0
sg135
F0.0
sg136
F0.0
sg137
F0.0
sg138
F0.0
sg139
F0.0
sg140
F0.0
sg141
F0.0
sg142
F0.0
sg143
F0.0
sg144
F0.0
sg145
F0.0
sg146
F0.0
sg147
F0.0
sg148
F0.0
sg149
F0.0
sg150
F0.0
sg151
F0.0
sg152
F0.0
sg153
F0.0
sg154
F21.0
sg155
F0.0
sg156
F0.0
sg157
F0.0
sg158
F0.0
sg159
F0.0
sg160
F0.0
sg161
F0.0
sg162
F0.0
sg163
F0.0
sg164
F0.0
sg165
F0.0
sg166
F0.0
sg167
F0.0
sg168
F0.0
stp229
s(S'f4872a3e4367643a7fd08109eae83d20'
p230
S'2014-03-24'
p231
tp232
(S'trojan.js.iframe.avt'
p233
(dp234
g6
F0.0
sg7
F0.0
sg8
F0.0
sg9
F0.0
sg10
F0.0
sg11
F17.0
sg12
F8.0
sg13
F0.0
sg14
F0.0
sg15
F0.0
sg16
F0.0
sg17
F0.0
sg18
F0.0
sg19
F0.0
sg20
F0.0
sg21
F0.0
sg22
F0.0
sg23
F0.0
sg24
F0.0
sg25
F0.0
sg26
F5.0
sg27
F0.0
sg28
F0.0
sg29
F0.0
sg30
F0.0
sg31
F0.0
sg32
F0.0
sg33
F0.0
sg34
F0.0
sg35
F0.0
sg36
F0.0
sg37
F0.0
sg38
F0.0
sg39
F0.0
sg40
F0.0
sg41
F17.0
sg42
F0.0
sg43
F30.0
sg44
F0.0
sg45
F0.0
sg46
F0.0
sg47
F0.0
sg48
F0.0
sg49
F0.0
sg50
F0.0
sg51
F0.0
sg52
F0.0
sg53
F0.0
sg54
F0.0
sg55
F0.0
sg56
F3.0
sg57
F0.0
sg58
F0.0
sg59
F17.0
sg60
F0.0
sg61
F0.0
sg62
F0.0
sg63
F0.0
sg64
F5.0
sg65
F0.0
sg66
F0.0
sg67
F0.0
sg68
F0.0
sg69
F0.0
sg70
F0.0
sg71
F0.0
sg72
F17.0
sg73
F0.0
sg74
F0.0
sg75
F0.0
sg76
F0.0
sg77
F0.0
sg78
F0.0
sg79
F0.0
sg80
F0.0
sg81
F0.0
sg82
F0.0
sg83
F0.0
sg84
F0.0
sg85
F0.0
sg86
F0.0
sg87
F0.0
sg88
F0.0
sg89
F0.0
sg90
F0.0
sg91
F0.0
sg92
F0.0
sg93
F0.0
sg94
F0.0
sg95
F16.0
sg96
F0.0
sg97
F0.0
sg98
F0.0
sg99
F0.0
sg100
F0.0
sg101
F0.0
sg102
F0.0
sg103
F0.0
sg104
F0.0
sg105
F0.0
sg106
F0.0
sg107
F0.0
sg108
F0.0
sg109
F0.0
sg110
F0.0
sg111
F0.0
sg112
F0.0
sg113
F0.0
sg114
F0.0
sg115
F0.0
sg116
F0.0
sg117
F0.0
sg118
F0.0
sg119
F0.0
sg120
F0.0
sg121
F0.0
sg122
F0.0
sg123
F0.0
sg124
F0.0
sg125
F0.0
sg126
F0.0
sg127
F0.0
sg128
F0.0
sg129
F0.0
sg130
F0.0
sg131
F0.0
sg132
F0.0
sg133
F0.0
sg134
F8.0
sg135
F0.0
sg136
F0.0
sg137
F0.0
sg138
F0.0
sg139
F0.0
sg140
F0.0
sg141
F0.0
sg142
F0.0
sg143
F0.0
sg144
F0.0
sg145
F0.0
sg146
F0.0
sg147
F0.0
sg148
F0.0
sg149
F0.0
sg150
F0.0
sg151
F0.0
sg152
F0.0
sg153
F0.0
sg154
F0.0
sg155
F0.0
sg156
F0.0
sg157
F0.0
sg158
F0.0
sg159
F0.0
sg160
F0.0
sg161
F22.0
sg162
F0.0
sg163
F0.0
sg164
F0.0
sg165
F0.0
sg166
F0.0
sg167
F8.0
sg168
F8.0
stp235
s(S'c986da9f517172788037799b59e1eb62'
p236
S'2014-10-31'
p237
tp238
(S'trojan.js.iframe.avt'
p239
(dp240
g6
F0.0
sg7
F0.0
sg8
F0.0
sg9
F0.0
sg10
F0.0
sg11
F0.0
sg12
F0.0
sg13
F0.0
sg14
F0.0
sg15
F0.0
sg16
F0.0
sg17
F0.0
sg18
F0.0
sg19
F0.0
sg20
F0.0
sg21
F0.0
sg22
F0.0
sg23
F0.0
sg24
F0.0
sg25
F0.0
sg26
F0.0
sg27
F0.0
sg28
F0.0
sg29
F0.0
sg30
F0.0
sg31
F0.0
sg32
F0.0
sg33
F0.0
sg34
F0.0
sg35
F0.0
sg36
F0.0
sg37
F0.0
sg38
F0.0
sg39
F0.0
sg40
F0.0
sg41
F0.0
sg42
F0.0
sg43
F0.0
sg44
F0.0
sg45
F0.0
sg46
F0.0
sg47
F0.0
sg48
F0.0
sg49
F0.0
sg50
F0.0
sg51
F0.0
sg52
F0.0
sg53
F0.0
sg54
F0.0
sg55
F0.0
sg56
F0.0
sg57
F0.0
sg58
F0.0
sg59
F0.0
sg60
F0.0
sg61
F0.0
sg62
F0.0
sg63
F0.0
sg64
F14.0
sg65
F0.0
sg66
F0.0
sg67
F30.0
sg68
F0.0
sg69
F0.0
sg70
F0.0
sg71
F0.0
sg72
F0.0
sg73
F0.0
sg74
F0.0
sg75
F0.0
sg76
F0.0
sg77
F0.0
sg78
F0.0
sg79
F0.0
sg80
F0.0
sg81
F0.0
sg82
F0.0
sg83
F0.0
sg84
F0.0
sg85
F0.0
sg86
F0.0
sg87
F0.0
sg88
F0.0
sg89
F0.0
sg90
F0.0
sg91
F0.0
sg92
F0.0
sg93
F0.0
sg94
F0.0
sg95
F0.0
sg96
F0.0
sg97
F0.0
sg98
F0.0
sg99
F0.0
sg100
F0.0
sg101
F0.0
sg102
F0.0
sg103
F0.0
sg104
F0.0
sg105
F0.0
sg106
F0.0
sg107
F0.0
sg108
F0.0
sg109
F0.0
sg110
F0.0
sg111
F0.0
sg112
F0.0
sg113
F0.0
sg114
F0.0
sg115
F0.0
sg116
F0.0
sg117
F0.0
sg118
F0.0
sg119
F0.0
sg120
F0.0
sg121
F0.0
sg122
F0.0
sg123
F0.0
sg124
F0.0
sg125
F0.0
sg126
F0.0
sg127
F0.0
sg128
F0.0
sg129
F0.0
sg130
F0.0
sg131
F0.0
sg132
F0.0
sg133
F0.0
sg134
F0.0
sg135
F0.0
sg136
F0.0
sg137
F0.0
sg138
F0.0
sg139
F0.0
sg140
F0.0
sg141
F0.0
sg142
F0.0
sg143
F0.0
sg144
F0.0
sg145
F0.0
sg146
F0.0
sg147
F0.0
sg148
F0.0
sg149
F0.0
sg150
F0.0
sg151
F0.0
sg152
F0.0
sg153
F0.0
sg154
F0.0
sg155
F0.0
sg156
F0.0
sg157
F0.0
sg158
F0.0
sg159
F0.0
sg160
F0.0
sg161
F14.0
sg162
F0.0
sg163
F0.0
sg164
F0.0
sg165
F0.0
sg166
F0.0
sg167
F18.0
sg168
F0.0
stp241
s(S'37629ceb6b1e30f0bfb66d00eb09fac8'
p242
S'2014-04-02'
p243
tp244
(S'win32.worm.nimda.o'
p245
(dp246
g6
F0.0
sg7
F0.0
sg8
F0.0
sg9
F0.0
sg10
F0.0
sg11
F0.0
sg12
F0.0
sg13
F0.0
sg14
F0.0
sg15
F0.0
sg16
F0.0
sg17
F0.0
sg18
F0.0
sg19
F0.0
sg20
F0.0
sg21
F0.0
sg22
F0.0
sg23
F0.0
sg24
F0.0
sg25
F1.0
sg26
F16.0
sg27
F0.0
sg28
F0.0
sg29
F0.0
sg30
F0.0
sg31
F0.0
sg32
F0.0
sg33
F0.0
sg34
F0.0
sg35
F3.0
sg36
F0.0
sg37
F0.0
sg38
F0.0
sg39
F0.0
sg40
F0.0
sg41
F0.0
sg42
F0.0
sg43
F0.0
sg44
F0.0
sg45
F0.0
sg46
F0.0
sg47
F0.0
sg48
F4.0
sg49
F0.0
sg50
F0.0
sg51
F0.0
sg52
F0.0
sg53
F0.0
sg54
F0.0
sg55
F0.0
sg56
F0.0
sg57
F0.0
sg58
F0.0
sg59
F0.0
sg60
F0.0
sg61
F0.0
sg62
F0.0
sg63
F0.0
sg64
F6.0
sg65
F0.0
sg66
F0.0
sg67
F15.0
sg68
F0.0
sg69
F0.0
sg70
F0.0
sg71
F0.0
sg72
F0.0
sg73
F0.0
sg74
F0.0
sg75
F0.0
sg76
F0.0
sg77
F0.0
sg78
F0.0
sg79
F0.0
sg80
F0.0
sg81
F0.0
sg82
F0.0
sg83
F0.0
sg84
F0.0
sg85
F0.0
sg86
F0.0
sg87
F0.0
sg88
F0.0
sg89
F0.0
sg90
F0.0
sg91
F0.0
sg92
F0.0
sg93
F0.0
sg94
F0.0
sg95
F26.0
sg96
F0.0
sg97
F0.0
sg98
F0.0
sg99
F0.0
sg100
F0.0
sg101
F0.0
sg102
F0.0
sg103
F0.0
sg104
F0.0
sg105
F0.0
sg106
F0.0
sg107
F0.0
sg108
F0.0
sg109
F0.0
sg110
F0.0
sg111
F0.0
sg112
F0.0
sg113
F0.0
sg114
F0.0
sg115
F0.0
sg116
F0.0
sg117
F0.0
sg118
F0.0
sg119
F0.0
sg120
F0.0
sg121
F0.0
sg122
F0.0
sg123
F0.0
sg124
F0.0
sg125
F0.0
sg126
F0.0
sg127
F0.0
sg128
F0.0
sg129
F0.0
sg130
F3.0
sg131
F0.0
sg132
F0.0
sg133
F0.0
sg134
F0.0
sg135
F0.0
sg136
F0.0
sg137
F0.0
sg138
F0.0
sg139
F0.0
sg140
F0.0
sg141
F0.0
sg142
F0.0
sg143
F0.0
sg144
F0.0
sg145
F0.0
sg146
F0.0
sg147
F0.0
sg148
F0.0
sg149
F0.0
sg150
F0.0
sg151
F0.0
sg152
F0.0
sg153
F0.0
sg154
F5.0
sg155
F0.0
sg156
F0.0
sg157
F0.0
sg158
F0.0
sg159
F0.0
sg160
F0.0
sg161
F6.0
sg162
F0.0
sg163
F0.0
sg164
F0.0
sg165
F0.0
sg166
F0.0
sg167
F0.0
sg168
F1.0
stp247
s(S'a80996534bf6ff083c88d459b70d3bce'
p248
S'2014-06-26'
p249
tp250
(S'generic'
p251
(dp252
g6
F0.0
sg7
F0.0
sg8
F0.0
sg9
F0.0
sg10
F0.0
sg11
F0.0
sg12
F0.0
sg13
F0.0
sg14
F0.0
sg15
F0.0
sg16
F0.0
sg17
F0.0
sg18
F0.0
sg19
F0.0
sg20
F0.0
sg21
F0.0
sg22
F0.0
sg23
F0.0
sg24
F0.0
sg25
F0.0
sg26
F0.0
sg27
F0.0
sg28
F0.0
sg29
F0.0
sg30
F0.0
sg31
F0.0
sg32
F0.0
sg33
F0.0
sg34
F0.0
sg35
F0.0
sg36
F0.0
sg37
F0.0
sg38
F0.0
sg39
F0.0
sg40
F0.0
sg41
F0.0
sg42
F0.0
sg43
F0.0
sg44
F0.0
sg45
F0.0
sg46
F0.0
sg47
F0.0
sg48
F0.0
sg49
F0.0
sg50
F0.0
sg51
F0.0
sg52
F0.0
sg53
F0.0
sg54
F0.0
sg55
F0.0
sg56
F0.0
sg57
F0.0
sg58
F0.0
sg59
F0.0
sg60
F0.0
sg61
F0.0
sg62
F0.0
sg63
F0.0
sg64
F0.0
sg65
F0.0
sg66
F0.0
sg67
F126.0
sg68
F0.0
sg69
F0.0
sg70
F0.0
sg71
F0.0
sg72
F0.0
sg73
F0.0
sg74
F0.0
sg75
F0.0
sg76
F0.0
sg77
F0.0
sg78
F0.0
sg79
F0.0
sg80
F0.0
sg81
F0.0
sg82
F0.0
sg83
F0.0
sg84
F0.0
sg85
F0.0
sg86
F0.0
sg87
F0.0
sg88
F0.0
sg89
F0.0
sg90
F0.0
sg91
F0.0
sg92
F0.0
sg93
F0.0
sg94
F0.0
sg95
F0.0
sg96
F0.0
sg97
F0.0
sg98
F0.0
sg99
F0.0
sg100
F0.0
sg101
F0.0
sg102
F0.0
sg103
F0.0
sg104
F0.0
sg105
F0.0
sg106
F0.0
sg107
F0.0
sg108
F0.0
sg109
F0.0
sg110
F0.0
sg111
F0.0
sg112
F0.0
sg113
F0.0
sg114
F0.0
sg115
F0.0
sg116
F0.0
sg117
F0.0
sg118
F0.0
sg119
F0.0
sg120
F0.0
sg121
F0.0
sg122
F0.0
sg123
F0.0
sg124
F0.0
sg125
F0.0
sg126
F0.0
sg127
F0.0
sg128
F0.0
sg129
F0.0
sg130
F0.0
sg131
F0.0
sg132
F0.0
sg133
F0.0
sg134
F0.0
sg135
F0.0
sg136
F0.0
sg137
F0.0
sg138
F0.0
sg139
F0.0
sg140
F0.0
sg141
F0.0
sg142
F0.0
sg143
F0.0
sg144
F0.0
sg145
F0.0
sg146
F0.0
sg147
F0.0
sg148
F0.0
sg149
F0.0
sg150
F0.0
sg151
F0.0
sg152
F0.0
sg153
F0.0
sg154
F0.0
sg155
F0.0
sg156
F0.0
sg157
F0.0
sg158
F0.0
sg159
F0.0
sg160
F0.0
sg161
F0.0
sg162
F0.0
sg163
F0.0
sg164
F0.0
sg165
F0.0
sg166
F0.0
sg167
F0.0
sg168
F0.0
stp253
s(S'92fbb47b4488cdeed5b2a5fca69da55d'
p254
S'2014-08-08'
p255
tp256
(S'generic'
p257
(dp258
g6
F0.0
sg7
F0.0
sg8
F0.0
sg9
F0.0
sg10
F0.0
sg11
F21.0
sg12
F6.0
sg13
F0.0
sg14
F0.0
sg15
F0.0
sg16
F0.0
sg17
F0.0
sg18
F0.0
sg19
F0.0
sg20
F0.0
sg21
F0.0
sg22
F0.0
sg23
F0.0
sg24
F0.0
sg25
F0.0
sg26
F0.0
sg27
F0.0
sg28
F0.0
sg29
F0.0
sg30
F0.0
sg31
F0.0
sg32
F0.0
sg33
F0.0
sg34
F0.0
sg35
F0.0
sg36
F0.0
sg37
F0.0
sg38
F0.0
sg39
F0.0
sg40
F0.0
sg41
F21.0
sg42
F0.0
sg43
F40733.0
sg44
F0.0
sg45
F0.0
sg46
F0.0
sg47
F0.0
sg48
F0.0
sg49
F0.0
sg50
F0.0
sg51
F0.0
sg52
F0.0
sg53
F0.0
sg54
F0.0
sg55
F0.0
sg56
F0.0
sg57
F0.0
sg58
F0.0
sg59
F21.0
sg60
F0.0
sg61
F0.0
sg62
F0.0
sg63
F0.0
sg64
F0.0
sg65
F0.0
sg66
F0.0
sg67
F0.0
sg68
F0.0
sg69
F0.0
sg70
F0.0
sg71
F0.0
sg72
F21.0
sg73
F0.0
sg74
F0.0
sg75
F0.0
sg76
F0.0
sg77
F0.0
sg78
F0.0
sg79
F0.0
sg80
F0.0
sg81
F0.0
sg82
F0.0
sg83
F0.0
sg84
F0.0
sg85
F0.0
sg86
F0.0
sg87
F0.0
sg88
F0.0
sg89
F0.0
sg90
F0.0
sg91
F0.0
sg92
F0.0
sg93
F0.0
sg94
F0.0
sg95
F15.0
sg96
F0.0
sg97
F0.0
sg98
F0.0
sg99
F0.0
sg100
F0.0
sg101
F0.0
sg102
F0.0
sg103
F0.0
sg104
F0.0
sg105
F0.0
sg106
F0.0
sg107
F0.0
sg108
F0.0
sg109
F0.0
sg110
F0.0
sg111
F0.0
sg112
F0.0
sg113
F0.0
sg114
F0.0
sg115
F0.0
sg116
F0.0
sg117
F0.0
sg118
F0.0
sg119
F0.0
sg120
F0.0
sg121
F0.0
sg122
F0.0
sg123
F0.0
sg124
F0.0
sg125
F0.0
sg126
F0.0
sg127
F0.0
sg128
F0.0
sg129
F0.0
sg130
F0.0
sg131
F0.0
sg132
F0.0
sg133
F0.0
sg134
F4.0
sg135
F0.0
sg136
F0.0
sg137
F0.0
sg138
F0.0
sg139
F0.0
sg140
F0.0
sg141
F0.0
sg142
F0.0
sg143
F0.0
sg144
F0.0
sg145
F0.0
sg146
F0.0
sg147
F0.0
sg148
F0.0
sg149
F0.0
sg150
F0.0
sg151
F0.0
sg152
F0.0
sg153
F0.0
sg154
F217.0
sg155
F0.0
sg156
F0.0
sg157
F0.0
sg158
F0.0
sg159
F0.0
sg160
F0.0
sg161
F0.0
sg162
F0.0
sg163
F0.0
sg164
F0.0
sg165
F0.0
sg166
F0.0
sg167
F6.0
sg168
F4.0
stp259
s(S'f184aad56d767e6678ae4f8787a8444a'
p260
S'2014-08-18'
p261
tp262
(S'smsreg'
p263
(dp264
g6
F0.0
sg7
F0.0
sg8
F0.0
sg9
F0.0
sg10
F0.0
sg11
F0.0
sg12
F0.0
sg13
F0.0
sg14
F0.0
sg15
F0.0
sg16
F0.0
sg17
F0.0
sg18
F0.0
sg19
F0.0
sg20
F0.0
sg21
F0.0
sg22
F0.0
sg23
F0.0
sg24
F0.0
sg25
F0.0
sg26
F0.0
sg27
F0.0
sg28
F0.0
sg29
F0.0
sg30
F0.0
sg31
F0.0
sg32
F0.0
sg33
F1.0
sg34
F0.0
sg35
F0.0
sg36
F9.0
sg37
F0.0
sg38
F0.0
sg39
F0.0
sg40
F0.0
sg41
F0.0
sg42
F0.0
sg43
F20.0
sg44
F0.0
sg45
F0.0
sg46
F0.0
sg47
F0.0
sg48
F0.0
sg49
F21.0
sg50
F0.0
sg51
F0.0
sg52
F0.0
sg53
F0.0
sg54
F0.0
sg55
F0.0
sg56
F0.0
sg57
F0.0
sg58
F13.0
sg59
F0.0
sg60
F0.0
sg61
F0.0
sg62
F0.0
sg63
F0.0
sg64
F5.0
sg65
F0.0
sg66
F0.0
sg67
F18.0
sg68
F0.0
sg69
F63.0
sg70
F0.0
sg71
F0.0
sg72
F0.0
sg73
F0.0
sg74
F0.0
sg75
F0.0
sg76
F0.0
sg77
F0.0
sg78
F0.0
sg79
F0.0
sg80
F0.0
sg81
F0.0
sg82
F0.0
sg83
F0.0
sg84
F0.0
sg85
F0.0
sg86
F0.0
sg87
F0.0
sg88
F0.0
sg89
F0.0
sg90
F0.0
sg91
F0.0
sg92
F0.0
sg93
F0.0
sg94
F0.0
sg95
F21.0
sg96
F197.0
sg97
F0.0
sg98
F0.0
sg99
F0.0
sg100
F0.0
sg101
F0.0
sg102
F0.0
sg103
F0.0
sg104
F0.0
sg105
F0.0
sg106
F0.0
sg107
F0.0
sg108
F0.0
sg109
F0.0
sg110
F0.0
sg111
F0.0
sg112
F0.0
sg113
F0.0
sg114
F0.0
sg115
F0.0
sg116
F0.0
sg117
F0.0
sg118
F0.0
sg119
F0.0
sg120
F0.0
sg121
F0.0
sg122
F0.0
sg123
F0.0
sg124
F0.0
sg125
F0.0
sg126
F0.0
sg127
F0.0
sg128
F0.0
sg129
F0.0
sg130
F0.0
sg131
F0.0
sg132
F0.0
sg133
F0.0
sg134
F199.0
sg135
F0.0
sg136
F0.0
sg137
F0.0
sg138
F0.0
sg139
F0.0
sg140
F18.0
sg141
F0.0
sg142
F0.0
sg143
F0.0
sg144
F0.0
sg145
F0.0
sg146
F0.0
sg147
F0.0
sg148
F6.0
sg149
F0.0
sg150
F0.0
sg151
F0.0
sg152
F0.0
sg153
F0.0
sg154
F0.0
sg155
F0.0
sg156
F0.0
sg157
F0.0
sg158
F0.0
sg159
F0.0
sg160
F0.0
sg161
F0.0
sg162
F0.0
sg163
F0.0
sg164
F0.0
sg165
F0.0
sg166
F63.0
sg167
F208.0
sg168
F0.0
stp265
s(S'353ad58a37e6ccb93707c2a647b5fea8'
p266
S'2014-06-14'
p267
tp268
(S'apprisk:generisk'
p269
(dp270
g6
F0.0
sg7
F0.0
sg8
F0.0
sg9
F0.0
sg10
F0.0
sg11
F0.0
sg12
F0.0
sg13
F0.0
sg14
F0.0
sg15
F0.0
sg16
F0.0
sg17
F0.0
sg18
F0.0
sg19
F0.0
sg20
F0.0
sg21
F0.0
sg22
F0.0
sg23
F0.0
sg24
F0.0
sg25
F0.0
sg26
F0.0
sg27
F0.0
sg28
F0.0
sg29
F0.0
sg30
F0.0
sg31
F0.0
sg32
F0.0
sg33
F0.0
sg34
F0.0
sg35
F0.0
sg36
F0.0
sg37
F0.0
sg38
F0.0
sg39
F0.0
sg40
F0.0
sg41
F0.0
sg42
F0.0
sg43
F0.0
sg44
F0.0
sg45
F0.0
sg46
F0.0
sg47
F0.0
sg48
F0.0
sg49
F1.0
sg50
F0.0
sg51
F0.0
sg52
F0.0
sg53
F0.0
sg54
F0.0
sg55
F0.0
sg56
F0.0
sg57
F0.0
sg58
F0.0
sg59
F0.0
sg60
F0.0
sg61
F0.0
sg62
F0.0
sg63
F0.0
sg64
F0.0
sg65
F0.0
sg66
F0.0
sg67
F0.0
sg68
F0.0
sg69
F0.0
sg70
F0.0
sg71
F0.0
sg72
F0.0
sg73
F0.0
sg74
F0.0
sg75
F0.0
sg76
F0.0
sg77
F0.0
sg78
F0.0
sg79
F0.0
sg80
F0.0
sg81
F0.0
sg82
F0.0
sg83
F0.0
sg84
F0.0
sg85
F0.0
sg86
F0.0
sg87
F0.0
sg88
F0.0
sg89
F0.0
sg90
F0.0
sg91
F0.0
sg92
F0.0
sg93
F0.0
sg94
F0.0
sg95
F0.0
sg96
F0.0
sg97
F0.0
sg98
F0.0
sg99
F0.0
sg100
F0.0
sg101
F0.0
sg102
F0.0
sg103
F0.0
sg104
F0.0
sg105
F0.0
sg106
F0.0
sg107
F0.0
sg108
F0.0
sg109
F0.0
sg110
F0.0
sg111
F0.0
sg112
F0.0
sg113
F0.0
sg114
F0.0
sg115
F0.0
sg116
F0.0
sg117
F0.0
sg118
F0.0
sg119
F0.0
sg120
F0.0
sg121
F0.0
sg122
F0.0
sg123
F0.0
sg124
F0.0
sg125
F0.0
sg126
F0.0
sg127
F0.0
sg128
F0.0
sg129
F0.0
sg130
F0.0
sg131
F0.0
sg132
F0.0
sg133
F0.0
sg134
F0.0
sg135
F0.0
sg136
F0.0
sg137
F0.0
sg138
F0.0
sg139
F0.0
sg140
F0.0
sg141
F0.0
sg142
F0.0
sg143
F0.0
sg144
F0.0
sg145
F0.0
sg146
F0.0
sg147
F0.0
sg148
F0.0
sg149
F0.0
sg150
F0.0
sg151
F0.0
sg152
F0.0
sg153
F0.0
sg154
F0.0
sg155
F0.0
sg156
F0.0
sg157
F0.0
sg158
F0.0
sg159
F0.0
sg160
F0.0
sg161
F0.0
sg162
F0.0
sg163
F0.0
sg164
F0.0
sg165
F0.0
sg166
F0.0
sg167
F2.0
sg168
F0.0
stp271
s(S'b716e48e1b422f40121800f2fd931a1c'
p272
S'2014-03-27'
p273
tp274
(S'copycat'
p275
(dp276
g6
F0.0
sg7
F0.0
sg8
F0.0
sg9
F0.0
sg10
F0.0
sg11
F0.0
sg12
F2.0
sg13
F0.0
sg14
F0.0
sg15
F0.0
sg16
F0.0
sg17
F1.0
sg18
F0.0
sg19
F0.0
sg20
F0.0
sg21
F0.0
sg22
F0.0
sg23
F0.0
sg24
F0.0
sg25
F0.0
sg26
F0.0
sg27
F0.0
sg28
F0.0
sg29
F0.0
sg30
F0.0
sg31
F0.0
sg32
F0.0
sg33
F4.0
sg34
F0.0
sg35
F7.0
sg36
F0.0
sg37
F0.0
sg38
F0.0
sg39
F0.0
sg40
F0.0
sg41
F0.0
sg42
F0.0
sg43
F0.0
sg44
F0.0
sg45
F0.0
sg46
F0.0
sg47
F0.0
sg48
F7.0
sg49
F0.0
sg50
F0.0
sg51
F0.0
sg52
F0.0
sg53
F0.0
sg54
F0.0
sg55
F0.0
sg56
F0.0
sg57
F0.0
sg58
F0.0
sg59
F0.0
sg60
F0.0
sg61
F0.0
sg62
F0.0
sg63
F0.0
sg64
F0.0
sg65
F0.0
sg66
F0.0
sg67
F4.0
sg68
F0.0
sg69
F0.0
sg70
F0.0
sg71
F0.0
sg72
F0.0
sg73
F0.0
sg74
F0.0
sg75
F0.0
sg76
F0.0
sg77
F0.0
sg78
F0.0
sg79
F0.0
sg80
F0.0
sg81
F0.0
sg82
F0.0
sg83
F0.0
sg84
F0.0
sg85
F0.0
sg86
F0.0
sg87
F0.0
sg88
F0.0
sg89
F0.0
sg90
F0.0
sg91
F0.0
sg92
F0.0
sg93
F0.0
sg94
F0.0
sg95
F14.0
sg96
F8.0
sg97
F0.0
sg98
F0.0
sg99
F0.0
sg100
F0.0
sg101
F0.0
sg102
F0.0
sg103
F0.0
sg104
F0.0
sg105
F0.0
sg106
F0.0
sg107
F0.0
sg108
F0.0
sg109
F0.0
sg110
F0.0
sg111
F0.0
sg112
F0.0
sg113
F0.0
sg114
F0.0
sg115
F0.0
sg116
F0.0
sg117
F0.0
sg118
F0.0
sg119
F0.0
sg120
F0.0
sg121
F0.0
sg122
F0.0
sg123
F0.0
sg124
F0.0
sg125
F0.0
sg126
F0.0
sg127
F0.0
sg128
F0.0
sg129
F0.0
sg130
F7.0
sg131
F0.0
sg132
F0.0
sg133
F0.0
sg134
F6.0
sg135
F0.0
sg136
F0.0
sg137
F0.0
sg138
F0.0
sg139
F0.0
sg140
F0.0
sg141
F0.0
sg142
F0.0
sg143
F0.0
sg144
F0.0
sg145
F0.0
sg146
F0.0
sg147
F0.0
sg148
F0.0
sg149
F0.0
sg150
F0.0
sg151
F0.0
sg152
F0.0
sg153
F0.0
sg154
F3.0
sg155
F0.0
sg156
F0.0
sg157
F0.0
sg158
F0.0
sg159
F0.0
sg160
F0.0
sg161
F0.0
sg162
F0.0
sg163
F0.0
sg164
F0.0
sg165
F0.0
sg166
F0.0
sg167
F6.0
sg168
F0.0
stp277
s(S'023fc4e444a1dcc1bd1ea318bd1ab6e3'
p278
S'2014-11-27'
p279
tp280
(S'apprisk:generisk'
p281
(dp282
g6
F0.0
sg7
F0.0
sg8
F0.0
sg9
F0.0
sg10
F0.0
sg11
F0.0
sg12
F98.0
sg13
F0.0
sg14
F0.0
sg15
F0.0
sg16
F0.0
sg17
F0.0
sg18
F0.0
sg19
F0.0
sg20
F0.0
sg21
F0.0
sg22
F0.0
sg23
F0.0
sg24
F0.0
sg25
F0.0
sg26
F470.0
sg27
F0.0
sg28
F0.0
sg29
F0.0
sg30
F0.0
sg31
F0.0
sg32
F0.0
sg33
F0.0
sg34
F0.0
sg35
F0.0
sg36
F0.0
sg37
F0.0
sg38
F0.0
sg39
F0.0
sg40
F0.0
sg41
F0.0
sg42
F0.0
sg43
F0.0
sg44
F0.0
sg45
F0.0
sg46
F0.0
sg47
F0.0
sg48
F0.0
sg49
F0.0
sg50
F0.0
sg51
F0.0
sg52
F0.0
sg53
F0.0
sg54
F1.0
sg55
F0.0
sg56
F0.0
sg57
F0.0
sg58
F186.0
sg59
F0.0
sg60
F0.0
sg61
F0.0
sg62
F0.0
sg63
F0.0
sg64
F0.0
sg65
F0.0
sg66
F0.0
sg67
F98.0
sg68
F0.0
sg69
F0.0
sg70
F224.0
sg71
F0.0
sg72
F0.0
sg73
F0.0
sg74
F0.0
sg75
F0.0
sg76
F0.0
sg77
F0.0
sg78
F0.0
sg79
F0.0
sg80
F0.0
sg81
F0.0
sg82
F0.0
sg83
F0.0
sg84
F0.0
sg85
F0.0
sg86
F0.0
sg87
F0.0
sg88
F0.0
sg89
F0.0
sg90
F0.0
sg91
F0.0
sg92
F0.0
sg93
F0.0
sg94
F0.0
sg95
F34.0
sg96
F0.0
sg97
F0.0
sg98
F0.0
sg99
F0.0
sg100
F0.0
sg101
F0.0
sg102
F0.0
sg103
F0.0
sg104
F0.0
sg105
F1.0
sg106
F0.0
sg107
F0.0
sg108
F0.0
sg109
F0.0
sg110
F0.0
sg111
F0.0
sg112
F0.0
sg113
F0.0
sg114
F0.0
sg115
F0.0
sg116
F0.0
sg117
F0.0
sg118
F0.0
sg119
F0.0
sg120
F0.0
sg121
F0.0
sg122
F0.0
sg123
F0.0
sg124
F0.0
sg125
F0.0
sg126
F0.0
sg127
F0.0
sg128
F0.0
sg129
F0.0
sg130
F0.0
sg131
F0.0
sg132
F0.0
sg133
F0.0
sg134
F1.0
sg135
F0.0
sg136
F0.0
sg137
F0.0
sg138
F0.0
sg139
F0.0
sg140
F0.0
sg141
F0.0
sg142
F0.0
sg143
F0.0
sg144
F0.0
sg145
F0.0
sg146
F0.0
sg147
F0.0
sg148
F2.0
sg149
F0.0
sg150
F0.0
sg151
F0.0
sg152
F0.0
sg153
F0.0
sg154
F0.0
sg155
F0.0
sg156
F0.0
sg157
F0.0
sg158
F0.0
sg159
F0.0
sg160
F0.0
sg161
F0.0
sg162
F0.0
sg163
F0.0
sg164
F0.0
sg165
F0.0
sg166
F0.0
sg167
F2.0
sg168
F0.0
stp283
s(S'425d8f73063564325af2c6a558b67870'
p284
S'2014-02-21'
p285
tp286
(S'copycat'
p287
(dp288
g6
F0.0
sg7
F0.0
sg8
F0.0
sg9
F0.0
sg10
F0.0
sg11
F0.0
sg12
F0.0
sg13
F0.0
sg14
F0.0
sg15
F0.0
sg16
F0.0
sg17
F0.0
sg18
F0.0
sg19
F0.0
sg20
F0.0
sg21
F0.0
sg22
F0.0
sg23
F0.0
sg24
F0.0
sg25
F0.0
sg26
F0.0
sg27
F0.0
sg28
F0.0
sg29
F0.0
sg30
F0.0
sg31
F0.0
sg32
F0.0
sg33
F0.0
sg34
F0.0
sg35
F0.0
sg36
F0.0
sg37
F0.0
sg38
F0.0
sg39
F0.0
sg40
F0.0
sg41
F0.0
sg42
F0.0
sg43
F2.0
sg44
F0.0
sg45
F0.0
sg46
F0.0
sg47
F0.0
sg48
F0.0
sg49
F18.0
sg50
F0.0
sg51
F0.0
sg52
F0.0
sg53
F0.0
sg54
F0.0
sg55
F0.0
sg56
F0.0
sg57
F0.0
sg58
F0.0
sg59
F0.0
sg60
F0.0
sg61
F0.0
sg62
F0.0
sg63
F0.0
sg64
F0.0
sg65
F0.0
sg66
F0.0
sg67
F18.0
sg68
F0.0
sg69
F0.0
sg70
F0.0
sg71
F0.0
sg72
F0.0
sg73
F0.0
sg74
F0.0
sg75
F0.0
sg76
F0.0
sg77
F0.0
sg78
F0.0
sg79
F0.0
sg80
F0.0
sg81
F0.0
sg82
F0.0
sg83
F0.0
sg84
F0.0
sg85
F0.0
sg86
F0.0
sg87
F0.0
sg88
F0.0
sg89
F0.0
sg90
F0.0
sg91
F0.0
sg92
F0.0
sg93
F0.0
sg94
F0.0
sg95
F37.0
sg96
F0.0
sg97
F0.0
sg98
F0.0
sg99
F0.0
sg100
F0.0
sg101
F0.0
sg102
F0.0
sg103
F0.0
sg104
F0.0
sg105
F0.0
sg106
F0.0
sg107
F0.0
sg108
F0.0
sg109
F0.0
sg110
F0.0
sg111
F0.0
sg112
F0.0
sg113
F0.0
sg114
F0.0
sg115
F0.0
sg116
F0.0
sg117
F0.0
sg118
F0.0
sg119
F0.0
sg120
F0.0
sg121
F0.0
sg122
F0.0
sg123
F0.0
sg124
F0.0
sg125
F0.0
sg126
F0.0
sg127
F0.0
sg128
F0.0
sg129
F0.0
sg130
F0.0
sg131
F0.0
sg132
F0.0
sg133
F0.0
sg134
F1.0
sg135
F0.0
sg136
F0.0
sg137
F0.0
sg138
F0.0
sg139
F0.0
sg140
F32.0
sg141
F0.0
sg142
F0.0
sg143
F0.0
sg144
F0.0
sg145
F0.0
sg146
F0.0
sg147
F0.0
sg148
F0.0
sg149
F0.0
sg150
F0.0
sg151
F0.0
sg152
F0.0
sg153
F0.0
sg154
F0.0
sg155
F0.0
sg156
F0.0
sg157
F0.0
sg158
F0.0
sg159
F0.0
sg160
F0.0
sg161
F0.0
sg162
F0.0
sg163
F0.0
sg164
F0.0
sg165
F0.0
sg166
F0.0
sg167
F1.0
sg168
F0.0
stp289
s(S'c607c5e0f1f683633142ae1cb7eedb2f'
p290
S'2014-12-08'
p291
tp292
(S'rooter'
p293
(dp294
g6
F0.0
sg7
F0.0
sg8
F0.0
sg9
F0.0
sg10
F0.0
sg11
F0.0
sg12
F0.0
sg13
F0.0
sg14
F0.0
sg15
F0.0
sg16
F0.0
sg17
F0.0
sg18
F0.0
sg19
F0.0
sg20
F0.0
sg21
F0.0
sg22
F0.0
sg23
F0.0
sg24
F0.0
sg25
F0.0
sg26
F0.0
sg27
F0.0
sg28
F0.0
sg29
F0.0
sg30
F0.0
sg31
F0.0
sg32
F0.0
sg33
F0.0
sg34
F0.0
sg35
F0.0
sg36
F0.0
sg37
F0.0
sg38
F0.0
sg39
F0.0
sg40
F0.0
sg41
F0.0
sg42
F0.0
sg43
F0.0
sg44
F0.0
sg45
F0.0
sg46
F0.0
sg47
F0.0
sg48
F0.0
sg49
F0.0
sg50
F0.0
sg51
F0.0
sg52
F0.0
sg53
F0.0
sg54
F0.0
sg55
F0.0
sg56
F0.0
sg57
F0.0
sg58
F0.0
sg59
F0.0
sg60
F0.0
sg61
F0.0
sg62
F0.0
sg63
F0.0
sg64
F0.0
sg65
F0.0
sg66
F0.0
sg67
F5.0
sg68
F0.0
sg69
F0.0
sg70
F0.0
sg71
F0.0
sg72
F0.0
sg73
F0.0
sg74
F0.0
sg75
F0.0
sg76
F0.0
sg77
F0.0
sg78
F0.0
sg79
F0.0
sg80
F0.0
sg81
F0.0
sg82
F0.0
sg83
F0.0
sg84
F0.0
sg85
F0.0
sg86
F0.0
sg87
F0.0
sg88
F0.0
sg89
F0.0
sg90
F0.0
sg91
F0.0
sg92
F0.0
sg93
F0.0
sg94
F0.0
sg95
F0.0
sg96
F0.0
sg97
F0.0
sg98
F0.0
sg99
F0.0
sg100
F0.0
sg101
F0.0
sg102
F0.0
sg103
F0.0
sg104
F0.0
sg105
F0.0
sg106
F0.0
sg107
F0.0
sg108
F0.0
sg109
F0.0
sg110
F0.0
sg111
F0.0
sg112
F0.0
sg113
F0.0
sg114
F0.0
sg115
F0.0
sg116
F0.0
sg117
F0.0
sg118
F0.0
sg119
F0.0
sg120
F0.0
sg121
F0.0
sg122
F0.0
sg123
F0.0
sg124
F0.0
sg125
F0.0
sg126
F0.0
sg127
F0.0
sg128
F0.0
sg129
F0.0
sg130
F0.0
sg131
F0.0
sg132
F0.0
sg133
F0.0
sg134
F1.0
sg135
F0.0
sg136
F0.0
sg137
F0.0
sg138
F0.0
sg139
F0.0
sg140
F0.0
sg141
F0.0
sg142
F0.0
sg143
F0.0
sg144
F0.0
sg145
F0.0
sg146
F0.0
sg147
F0.0
sg148
F0.0
sg149
F0.0
sg150
F0.0
sg151
F0.0
sg152
F0.0
sg153
F0.0
sg154
F0.0
sg155
F0.0
sg156
F0.0
sg157
F0.0
sg158
F0.0
sg159
F0.0
sg160
F0.0
sg161
F0.0
sg162
F0.0
sg163
F0.0
sg164
F0.0
sg165
F0.0
sg166
F0.0
sg167
F1.0
sg168
F120.0
stp295
s(S'b073b94f28b05630d12700c8f0cb1c15'
p296
S'2014-01-28'
p297
tp298
(S'vdloader'
p299
(dp300
g6
F0.0
sg7
F0.0
sg8
F0.0
sg9
F0.0
sg10
F0.0
sg11
F0.0
sg12
F1.0
sg13
F0.0
sg14
F0.0
sg15
F0.0
sg16
F0.0
sg17
F1.0
sg18
F0.0
sg19
F0.0
sg20
F0.0
sg21
F0.0
sg22
F0.0
sg23
F0.0
sg24
F0.0
sg25
F0.0
sg26
F0.0
sg27
F0.0
sg28
F0.0
sg29
F0.0
sg30
F0.0
sg31
F0.0
sg32
F0.0
sg33
F2.0
sg34
F0.0
sg35
F7.0
sg36
F0.0
sg37
F0.0
sg38
F0.0
sg39
F0.0
sg40
F0.0
sg41
F0.0
sg42
F0.0
sg43
F0.0
sg44
F0.0
sg45
F0.0
sg46
F0.0
sg47
F0.0
sg48
F5.0
sg49
F0.0
sg50
F0.0
sg51
F0.0
sg52
F0.0
sg53
F0.0
sg54
F0.0
sg55
F0.0
sg56
F0.0
sg57
F0.0
sg58
F0.0
sg59
F0.0
sg60
F0.0
sg61
F0.0
sg62
F0.0
sg63
F0.0
sg64
F0.0
sg65
F0.0
sg66
F0.0
sg67
F0.0
sg68
F0.0
sg69
F0.0
sg70
F0.0
sg71
F0.0
sg72
F0.0
sg73
F0.0
sg74
F0.0
sg75
F0.0
sg76
F0.0
sg77
F0.0
sg78
F0.0
sg79
F0.0
sg80
F0.0
sg81
F0.0
sg82
F0.0
sg83
F0.0
sg84
F0.0
sg85
F0.0
sg86
F0.0
sg87
F0.0
sg88
F0.0
sg89
F0.0
sg90
F0.0
sg91
F0.0
sg92
F0.0
sg93
F0.0
sg94
F0.0
sg95
F0.0
sg96
F0.0
sg97
F0.0
sg98
F0.0
sg99
F0.0
sg100
F0.0
sg101
F0.0
sg102
F0.0
sg103
F0.0
sg104
F0.0
sg105
F0.0
sg106
F0.0
sg107
F0.0
sg108
F0.0
sg109
F0.0
sg110
F0.0
sg111
F0.0
sg112
F0.0
sg113
F0.0
sg114
F0.0
sg115
F0.0
sg116
F0.0
sg117
F0.0
sg118
F0.0
sg119
F0.0
sg120
F0.0
sg121
F0.0
sg122
F0.0
sg123
F0.0
sg124
F0.0
sg125
F0.0
sg126
F0.0
sg127
F0.0
sg128
F0.0
sg129
F0.0
sg130
F7.0
sg131
F0.0
sg132
F0.0
sg133
F0.0
sg134
F0.0
sg135
F0.0
sg136
F0.0
sg137
F0.0
sg138
F0.0
sg139
F0.0
sg140
F0.0
sg141
F0.0
sg142
F0.0
sg143
F0.0
sg144
F0.0
sg145
F0.0
sg146
F0.0
sg147
F0.0
sg148
F0.0
sg149
F0.0
sg150
F0.0
sg151
F0.0
sg152
F0.0
sg153
F0.0
sg154
F0.0
sg155
F0.0
sg156
F0.0
sg157
F0.0
sg158
F0.0
sg159
F0.0
sg160
F0.0
sg161
F0.0
sg162
F0.0
sg163
F0.0
sg164
F0.0
sg165
F0.0
sg166
F1.0
sg167
F0.0
sg168
F0.0
stp301
s(S'3a55d52cab79fdb861e0634e7476feb7'
p302
S'2014-02-24'
p303
tp304
(S'generic'
p305
(dp306
g6
F0.0
sg7
F0.0
sg8
F0.0
sg9
F0.0
sg10
F0.0
sg11
F732.0
sg12
F366.0
sg13
F0.0
sg14
F3.0
sg15
F0.0
sg16
F0.0
sg17
F1.0
sg18
F0.0
sg19
F0.0
sg20
F0.0
sg21
F0.0
sg22
F0.0
sg23
F0.0
sg24
F0.0
sg25
F0.0
sg26
F0.0
sg27
F0.0
sg28
F0.0
sg29
F0.0
sg30
F0.0
sg31
F0.0
sg32
F0.0
sg33
F35.0
sg34
F0.0
sg35
F4.0
sg36
F0.0
sg37
F0.0
sg38
F0.0
sg39
F0.0
sg40
F0.0
sg41
F732.0
sg42
F0.0
sg43
F1566.0
sg44
F0.0
sg45
F0.0
sg46
F0.0
sg47
F0.0
sg48
F4.0
sg49
F0.0
sg50
F0.0
sg51
F0.0
sg52
F0.0
sg53
F0.0
sg54
F0.0
sg55
F0.0
sg56
F0.0
sg57
F0.0
sg58
F1.0
sg59
F732.0
sg60
F0.0
sg61
F0.0
sg62
F0.0
sg63
F0.0
sg64
F1.0
sg65
F0.0
sg66
F0.0
sg67
F0.0
sg68
F0.0
sg69
F0.0
sg70
F0.0
sg71
F0.0
sg72
F732.0
sg73
F0.0
sg74
F0.0
sg75
F0.0
sg76
F0.0
sg77
F0.0
sg78
F0.0
sg79
F0.0
sg80
F0.0
sg81
F0.0
sg82
F0.0
sg83
F0.0
sg84
F0.0
sg85
F0.0
sg86
F0.0
sg87
F0.0
sg88
F0.0
sg89
F0.0
sg90
F0.0
sg91
F0.0
sg92
F0.0
sg93
F0.0
sg94
F0.0
sg95
F29.0
sg96
F0.0
sg97
F0.0
sg98
F0.0
sg99
F0.0
sg100
F0.0
sg101
F0.0
sg102
F0.0
sg103
F0.0
sg104
F0.0
sg105
F0.0
sg106
F0.0
sg107
F0.0
sg108
F0.0
sg109
F0.0
sg110
F0.0
sg111
F0.0
sg112
F0.0
sg113
F0.0
sg114
F0.0
sg115
F0.0
sg116
F0.0
sg117
F0.0
sg118
F0.0
sg119
F0.0
sg120
F0.0
sg121
F0.0
sg122
F1.0
sg123
F0.0
sg124
F0.0
sg125
F0.0
sg126
F0.0
sg127
F0.0
sg128
F0.0
sg129
F0.0
sg130
F4.0
sg131
F0.0
sg132
F0.0
sg133
F0.0
sg134
F362.0
sg135
F0.0
sg136
F0.0
sg137
F0.0
sg138
F0.0
sg139
F0.0
sg140
F0.0
sg141
F0.0
sg142
F0.0
sg143
F0.0
sg144
F0.0
sg145
F0.0
sg146
F0.0
sg147
F0.0
sg148
F0.0
sg149
F0.0
sg150
F0.0
sg151
F0.0
sg152
F0.0
sg153
F0.0
sg154
F1.0
sg155
F0.0
sg156
F0.0
sg157
F0.0
sg158
F0.0
sg159
F0.0
sg160
F0.0
sg161
F1.0
sg162
F0.0
sg163
F0.0
sg164
F0.0
sg165
F0.0
sg166
F35.0
sg167
F362.0
sg168
F369.0
stp307
s(S'f3dbcc1c4719e4b2e21572e99ca7c536'
p308
S'2014-04-03'
p309
tp310
(S'generic'
p311
(dp312
g6
F0.0
sg7
F0.0
sg8
F0.0
sg9
F0.0
sg10
F0.0
sg11
F0.0
sg12
F18.0
sg13
F0.0
sg14
F0.0
sg15
F0.0
sg16
F0.0
sg17
F2.0
sg18
F0.0
sg19
F0.0
sg20
F0.0
sg21
F0.0
sg22
F0.0
sg23
F0.0
sg24
F0.0
sg25
F0.0
sg26
F0.0
sg27
F0.0
sg28
F0.0
sg29
F0.0
sg30
F0.0
sg31
F0.0
sg32
F4.0
sg33
F0.0
sg34
F0.0
sg35
F23.0
sg36
F0.0
sg37
F0.0
sg38
F0.0
sg39
F0.0
sg40
F0.0
sg41
F0.0
sg42
F0.0
sg43
F4.0
sg44
F0.0
sg45
F0.0
sg46
F0.0
sg47
F0.0
sg48
F14166.0
sg49
F0.0
sg50
F0.0
sg51
F0.0
sg52
F0.0
sg53
F0.0
sg54
F0.0
sg55
F0.0
sg56
F0.0
sg57
F0.0
sg58
F3.0
sg59
F0.0
sg60
F0.0
sg61
F0.0
sg62
F0.0
sg63
F0.0
sg64
F0.0
sg65
F0.0
sg66
F0.0
sg67
F23.0
sg68
F0.0
sg69
F42.0
sg70
F0.0
sg71
F0.0
sg72
F0.0
sg73
F0.0
sg74
F0.0
sg75
F0.0
sg76
F0.0
sg77
F0.0
sg78
F0.0
sg79
F0.0
sg80
F0.0
sg81
F0.0
sg82
F0.0
sg83
F0.0
sg84
F0.0
sg85
F0.0
sg86
F0.0
sg87
F0.0
sg88
F0.0
sg89
F0.0
sg90
F0.0
sg91
F0.0
sg92
F0.0
sg93
F0.0
sg94
F0.0
sg95
F293.0
sg96
F0.0
sg97
F0.0
sg98
F0.0
sg99
F0.0
sg100
F0.0
sg101
F0.0
sg102
F0.0
sg103
F0.0
sg104
F0.0
sg105
F0.0
sg106
F0.0
sg107
F0.0
sg108
F0.0
sg109
F0.0
sg110
F0.0
sg111
F0.0
sg112
F0.0
sg113
F0.0
sg114
F0.0
sg115
F0.0
sg116
F0.0
sg117
F0.0
sg118
F0.0
sg119
F0.0
sg120
F0.0
sg121
F0.0
sg122
F0.0
sg123
F0.0
sg124
F0.0
sg125
F0.0
sg126
F0.0
sg127
F0.0
sg128
F0.0
sg129
F0.0
sg130
F23.0
sg131
F0.0
sg132
F0.0
sg133
F0.0
sg134
F0.0
sg135
F0.0
sg136
F0.0
sg137
F0.0
sg138
F0.0
sg139
F0.0
sg140
F10.0
sg141
F0.0
sg142
F0.0
sg143
F0.0
sg144
F0.0
sg145
F0.0
sg146
F0.0
sg147
F0.0
sg148
F3.0
sg149
F0.0
sg150
F0.0
sg151
F0.0
sg152
F0.0
sg153
F0.0
sg154
F2.0
sg155
F0.0
sg156
F0.0
sg157
F0.0
sg158
F0.0
sg159
F0.0
sg160
F0.0
sg161
F0.0
sg162
F0.0
sg163
F0.0
sg164
F0.0
sg165
F0.0
sg166
F41.0
sg167
F0.0
sg168
F0.0
stp313
s(S'ba38fb28e32cd0066884eb3da80db741'
p314
S'2014-12-07'
p315
tp316
(S'accutrack'
p317
(dp318
g6
F0.0
sg7
F0.0
sg8
F0.0
sg9
F0.0
sg10
F0.0
sg11
F0.0
sg12
F0.0
sg13
F0.0
sg14
F0.0
sg15
F0.0
sg16
F0.0
sg17
F0.0
sg18
F0.0
sg19
F0.0
sg20
F0.0
sg21
F0.0
sg22
F0.0
sg23
F0.0
sg24
F0.0
sg25
F0.0
sg26
F0.0
sg27
F0.0
sg28
F0.0
sg29
F0.0
sg30
F0.0
sg31
F0.0
sg32
F0.0
sg33
F0.0
sg34
F0.0
sg35
F0.0
sg36
F0.0
sg37
F0.0
sg38
F0.0
sg39
F0.0
sg40
F0.0
sg41
F0.0
sg42
F0.0
sg43
F0.0
sg44
F0.0
sg45
F0.0
sg46
F0.0
sg47
F0.0
sg48
F0.0
sg49
F0.0
sg50
F0.0
sg51
F0.0
sg52
F0.0
sg53
F0.0
sg54
F0.0
sg55
F0.0
sg56
F0.0
sg57
F0.0
sg58
F0.0
sg59
F0.0
sg60
F0.0
sg61
F0.0
sg62
F0.0
sg63
F0.0
sg64
F35.0
sg65
F0.0
sg66
F0.0
sg67
F0.0
sg68
F0.0
sg69
F0.0
sg70
F0.0
sg71
F0.0
sg72
F0.0
sg73
F0.0
sg74
F0.0
sg75
F0.0
sg76
F0.0
sg77
F0.0
sg78
F0.0
sg79
F0.0
sg80
F0.0
sg81
F0.0
sg82
F0.0
sg83
F0.0
sg84
F0.0
sg85
F0.0
sg86
F0.0
sg87
F0.0
sg88
F0.0
sg89
F0.0
sg90
F0.0
sg91
F0.0
sg92
F0.0
sg93
F0.0
sg94
F0.0
sg95
F53.0
sg96
F0.0
sg97
F0.0
sg98
F0.0
sg99
F0.0
sg100
F0.0
sg101
F0.0
sg102
F0.0
sg103
F0.0
sg104
F0.0
sg105
F0.0
sg106
F0.0
sg107
F0.0
sg108
F0.0
sg109
F0.0
sg110
F0.0
sg111
F0.0
sg112
F0.0
sg113
F0.0
sg114
F0.0
sg115
F0.0
sg116
F0.0
sg117
F0.0
sg118
F0.0
sg119
F0.0
sg120
F0.0
sg121
F0.0
sg122
F0.0
sg123
F0.0
sg124
F0.0
sg125
F0.0
sg126
F0.0
sg127
F0.0
sg128
F0.0
sg129
F0.0
sg130
F0.0
sg131
F0.0
sg132
F0.0
sg133
F0.0
sg134
F0.0
sg135
F0.0
sg136
F0.0
sg137
F0.0
sg138
F0.0
sg139
F0.0
sg140
F0.0
sg141
F0.0
sg142
F0.0
sg143
F0.0
sg144
F0.0
sg145
F0.0
sg146
F0.0
sg147
F0.0
sg148
F0.0
sg149
F0.0
sg150
F0.0
sg151
F0.0
sg152
F0.0
sg153
F0.0
sg154
F0.0
sg155
F0.0
sg156
F0.0
sg157
F0.0
sg158
F0.0
sg159
F0.0
sg160
F0.0
sg161
F31.0
sg162
F0.0
sg163
F0.0
sg164
F0.0
sg165
F0.0
sg166
F0.0
sg167
F0.0
sg168
F0.0
stp319
s(S'd9865556ececf96baeaee88a930f3333'
p320
S'2014-01-29'
p321
tp322
(S'gappusin'
p323
(dp324
g6
F0.0
sg7
F0.0
sg8
F0.0
sg9
F0.0
sg10
F0.0
sg11
F0.0
sg12
F5.0
sg13
F0.0
sg14
F0.0
sg15
F0.0
sg16
F0.0
sg17
F5.0
sg18
F0.0
sg19
F0.0
sg20
F0.0
sg21
F0.0
sg22
F0.0
sg23
F0.0
sg24
F0.0
sg25
F0.0
sg26
F0.0
sg27
F0.0
sg28
F0.0
sg29
F0.0
sg30
F0.0
sg31
F0.0
sg32
F0.0
sg33
F1.0
sg34
F0.0
sg35
F5.0
sg36
F0.0
sg37
F0.0
sg38
F0.0
sg39
F0.0
sg40
F0.0
sg41
F0.0
sg42
F0.0
sg43
F2.0
sg44
F0.0
sg45
F0.0
sg46
F0.0
sg47
F0.0
sg48
F5.0
sg49
F1.0
sg50
F0.0
sg51
F0.0
sg52
F0.0
sg53
F0.0
sg54
F0.0
sg55
F0.0
sg56
F0.0
sg57
F0.0
sg58
F1.0
sg59
F0.0
sg60
F0.0
sg61
F0.0
sg62
F0.0
sg63
F0.0
sg64
F6.0
sg65
F0.0
sg66
F0.0
sg67
F0.0
sg68
F0.0
sg69
F0.0
sg70
F0.0
sg71
F0.0
sg72
F0.0
sg73
F0.0
sg74
F0.0
sg75
F0.0
sg76
F0.0
sg77
F0.0
sg78
F0.0
sg79
F0.0
sg80
F0.0
sg81
F0.0
sg82
F0.0
sg83
F0.0
sg84
F0.0
sg85
F0.0
sg86
F0.0
sg87
F0.0
sg88
F0.0
sg89
F0.0
sg90
F0.0
sg91
F0.0
sg92
F0.0
sg93
F0.0
sg94
F0.0
sg95
F42.0
sg96
F0.0
sg97
F0.0
sg98
F0.0
sg99
F0.0
sg100
F0.0
sg101
F0.0
sg102
F0.0
sg103
F0.0
sg104
F0.0
sg105
F0.0
sg106
F0.0
sg107
F0.0
sg108
F0.0
sg109
F0.0
sg110
F0.0
sg111
F0.0
sg112
F0.0
sg113
F0.0
sg114
F0.0
sg115
F0.0
sg116
F0.0
sg117
F0.0
sg118
F0.0
sg119
F0.0
sg120
F0.0
sg121
F0.0
sg122
F0.0
sg123
F0.0
sg124
F0.0
sg125
F0.0
sg126
F0.0
sg127
F0.0
sg128
F0.0
sg129
F0.0
sg130
F5.0
sg131
F0.0
sg132
F0.0
sg133
F0.0
sg134
F0.0
sg135
F0.0
sg136
F0.0
sg137
F0.0
sg138
F0.0
sg139
F0.0
sg140
F0.0
sg141
F0.0
sg142
F0.0
sg143
F0.0
sg144
F0.0
sg145
F0.0
sg146
F0.0
sg147
F0.0
sg148
F0.0
sg149
F0.0
sg150
F0.0
sg151
F0.0
sg152
F0.0
sg153
F0.0
sg154
F0.0
sg155
F0.0
sg156
F0.0
sg157
F0.0
sg158
F0.0
sg159
F0.0
sg160
F0.0
sg161
F6.0
sg162
F0.0
sg163
F0.0
sg164
F0.0
sg165
F0.0
sg166
F1.0
sg167
F0.0
sg168
F0.0
stp325
s(S'1628b2fcf280628801035391cb540fd8'
p326
S'2014-02-12'
p327
tp328
(S'copycat'
p329
(dp330
g6
F0.0
sg7
F0.0
sg8
F0.0
sg9
F0.0
sg10
F0.0
sg11
F20.0
sg12
F33.0
sg13
F0.0
sg14
F0.0
sg15
F0.0
sg16
F0.0
sg17
F49.0
sg18
F0.0
sg19
F0.0
sg20
F0.0
sg21
F0.0
sg22
F0.0
sg23
F0.0
sg24
F0.0
sg25
F0.0
sg26
F0.0
sg27
F0.0
sg28
F0.0
sg29
F0.0
sg30
F0.0
sg31
F0.0
sg32
F0.0
sg33
F0.0
sg34
F0.0
sg35
F13.0
sg36
F0.0
sg37
F0.0
sg38
F0.0
sg39
F0.0
sg40
F0.0
sg41
F10.0
sg42
F13.0
sg43
F0.0
sg44
F0.0
sg45
F0.0
sg46
F0.0
sg47
F0.0
sg48
F0.0
sg49
F0.0
sg50
F0.0
sg51
F0.0
sg52
F0.0
sg53
F0.0
sg54
F0.0
sg55
F0.0
sg56
F2.0
sg57
F0.0
sg58
F15.0
sg59
F20.0
sg60
F0.0
sg61
F0.0
sg62
F0.0
sg63
F0.0
sg64
F14.0
sg65
F0.0
sg66
F0.0
sg67
F28.0
sg68
F0.0
sg69
F15.0
sg70
F0.0
sg71
F0.0
sg72
F0.0
sg73
F0.0
sg74
F0.0
sg75
F0.0
sg76
F0.0
sg77
F0.0
sg78
F0.0
sg79
F0.0
sg80
F0.0
sg81
F0.0
sg82
F0.0
sg83
F0.0
sg84
F0.0
sg85
F0.0
sg86
F0.0
sg87
F0.0
sg88
F0.0
sg89
F0.0
sg90
F0.0
sg91
F0.0
sg92
F0.0
sg93
F0.0
sg94
F0.0
sg95
F29.0
sg96
F0.0
sg97
F0.0
sg98
F0.0
sg99
F0.0
sg100
F0.0
sg101
F0.0
sg102
F0.0
sg103
F0.0
sg104
F0.0
sg105
F0.0
sg106
F0.0
sg107
F0.0
sg108
F0.0
sg109
F0.0
sg110
F0.0
sg111
F0.0
sg112
F0.0
sg113
F0.0
sg114
F0.0
sg115
F0.0
sg116
F0.0
sg117
F0.0
sg118
F0.0
sg119
F0.0
sg120
F0.0
sg121
F0.0
sg122
F0.0
sg123
F0.0
sg124
F0.0
sg125
F16.0
sg126
F0.0
sg127
F0.0
sg128
F0.0
sg129
F0.0
sg130
F13.0
sg131
F0.0
sg132
F0.0
sg133
F0.0
sg134
F0.0
sg135
F0.0
sg136
F0.0
sg137
F0.0
sg138
F0.0
sg139
F0.0
sg140
F0.0
sg141
F0.0
sg142
F0.0
sg143
F0.0
sg144
F0.0
sg145
F0.0
sg146
F0.0
sg147
F0.0
sg148
F2.0
sg149
F0.0
sg150
F0.0
sg151
F0.0
sg152
F0.0
sg153
F0.0
sg154
F5.0
sg155
F0.0
sg156
F0.0
sg157
F0.0
sg158
F0.0
sg159
F0.0
sg160
F0.0
sg161
F14.0
sg162
F0.0
sg163
F0.0
sg164
F0.0
sg165
F0.0
sg166
F17.0
sg167
F0.0
sg168
F0.0
stp331
s(S'f626dd5457cb3846bb1f049372e11460'
p332
S'2014-05-04'
p333
tp334
(S'generic'
p335
(dp336
g6
F0.0
sg7
F0.0
sg8
F0.0
sg9
F0.0
sg10
F0.0
sg11
F0.0
sg12
F0.0
sg13
F0.0
sg14
F0.0
sg15
F0.0
sg16
F0.0
sg17
F0.0
sg18
F0.0
sg19
F0.0
sg20
F0.0
sg21
F0.0
sg22
F0.0
sg23
F0.0
sg24
F0.0
sg25
F0.0
sg26
F0.0
sg27
F0.0
sg28
F0.0
sg29
F0.0
sg30
F0.0
sg31
F0.0
sg32
F0.0
sg33
F0.0
sg34
F0.0
sg35
F0.0
sg36
F0.0
sg37
F0.0
sg38
F0.0
sg39
F0.0
sg40
F0.0
sg41
F0.0
sg42
F0.0
sg43
F0.0
sg44
F0.0
sg45
F0.0
sg46
F0.0
sg47
F0.0
sg48
F0.0
sg49
F0.0
sg50
F0.0
sg51
F0.0
sg52
F0.0
sg53
F0.0
sg54
F0.0
sg55
F0.0
sg56
F0.0
sg57
F0.0
sg58
F0.0
sg59
F0.0
sg60
F0.0
sg61
F0.0
sg62
F0.0
sg63
F0.0
sg64
F0.0
sg65
F0.0
sg66
F0.0
sg67
F0.0
sg68
F0.0
sg69
F0.0
sg70
F0.0
sg71
F0.0
sg72
F0.0
sg73
F0.0
sg74
F0.0
sg75
F0.0
sg76
F0.0
sg77
F0.0
sg78
F0.0
sg79
F0.0
sg80
F0.0
sg81
F0.0
sg82
F0.0
sg83
F0.0
sg84
F0.0
sg85
F0.0
sg86
F0.0
sg87
F0.0
sg88
F0.0
sg89
F0.0
sg90
F0.0
sg91
F0.0
sg92
F0.0
sg93
F0.0
sg94
F0.0
sg95
F0.0
sg96
F0.0
sg97
F0.0
sg98
F0.0
sg99
F0.0
sg100
F0.0
sg101
F0.0
sg102
F0.0
sg103
F0.0
sg104
F0.0
sg105
F0.0
sg106
F0.0
sg107
F0.0
sg108
F0.0
sg109
F0.0
sg110
F0.0
sg111
F0.0
sg112
F0.0
sg113
F0.0
sg114
F0.0
sg115
F0.0
sg116
F0.0
sg117
F0.0
sg118
F0.0
sg119
F0.0
sg120
F0.0
sg121
F0.0
sg122
F0.0
sg123
F0.0
sg124
F0.0
sg125
F0.0
sg126
F0.0
sg127
F0.0
sg128
F0.0
sg129
F0.0
sg130
F0.0
sg131
F0.0
sg132
F0.0
sg133
F0.0
sg134
F0.0
sg135
F0.0
sg136
F0.0
sg137
F0.0
sg138
F0.0
sg139
F0.0
sg140
F0.0
sg141
F0.0
sg142
F0.0
sg143
F0.0
sg144
F0.0
sg145
F0.0
sg146
F0.0
sg147
F0.0
sg148
F0.0
sg149
F0.0
sg150
F0.0
sg151
F0.0
sg152
F0.0
sg153
F0.0
sg154
F0.0
sg155
F0.0
sg156
F0.0
sg157
F0.0
sg158
F0.0
sg159
F0.0
sg160
F0.0
sg161
F0.0
sg162
F0.0
sg163
F0.0
sg164
F0.0
sg165
F0.0
sg166
F0.0
sg167
F0.0
sg168
F0.0
stp337
s(S'8e16841672e64d49001b9d3dd2da1248'
p338
S'2014-04-19'
p339
tp340
(S'generic'
p341
(dp342
g6
F0.0
sg7
F0.0
sg8
F0.0
sg9
F0.0
sg10
F0.0
sg11
F0.0
sg12
F1.0
sg13
F0.0
sg14
F97.0
sg15
F0.0
sg16
F0.0
sg17
F0.0
sg18
F0.0
sg19
F0.0
sg20
F0.0
sg21
F0.0
sg22
F0.0
sg23
F0.0
sg24
F0.0
sg25
F0.0
sg26
F0.0
sg27
F0.0
sg28
F0.0
sg29
F0.0
sg30
F0.0
sg31
F0.0
sg32
F0.0
sg33
F0.0
sg34
F0.0
sg35
F0.0
sg36
F0.0
sg37
F0.0
sg38
F0.0
sg39
F0.0
sg40
F0.0
sg41
F0.0
sg42
F0.0
sg43
F190.0
sg44
F0.0
sg45
F0.0
sg46
F0.0
sg47
F0.0
sg48
F0.0
sg49
F0.0
sg50
F0.0
sg51
F0.0
sg52
F0.0
sg53
F0.0
sg54
F0.0
sg55
F0.0
sg56
F0.0
sg57
F0.0
sg58
F0.0
sg59
F0.0
sg60
F0.0
sg61
F0.0
sg62
F0.0
sg63
F0.0
sg64
F0.0
sg65
F0.0
sg66
F0.0
sg67
F0.0
sg68
F0.0
sg69
F95.0
sg70
F0.0
sg71
F0.0
sg72
F0.0
sg73
F0.0
sg74
F0.0
sg75
F0.0
sg76
F0.0
sg77
F0.0
sg78
F0.0
sg79
F0.0
sg80
F0.0
sg81
F0.0
sg82
F0.0
sg83
F0.0
sg84
F0.0
sg85
F0.0
sg86
F0.0
sg87
F0.0
sg88
F0.0
sg89
F0.0
sg90
F0.0
sg91
F0.0
sg92
F0.0
sg93
F0.0
sg94
F0.0
sg95
F2.0
sg96
F0.0
sg97
F0.0
sg98
F0.0
sg99
F0.0
sg100
F0.0
sg101
F0.0
sg102
F0.0
sg103
F0.0
sg104
F0.0
sg105
F0.0
sg106
F0.0
sg107
F0.0
sg108
F0.0
sg109
F0.0
sg110
F0.0
sg111
F0.0
sg112
F0.0
sg113
F0.0
sg114
F0.0
sg115
F0.0
sg116
F0.0
sg117
F0.0
sg118
F0.0
sg119
F0.0
sg120
F0.0
sg121
F0.0
sg122
F0.0
sg123
F0.0
sg124
F0.0
sg125
F0.0
sg126
F0.0
sg127
F0.0
sg128
F0.0
sg129
F0.0
sg130
F0.0
sg131
F0.0
sg132
F0.0
sg133
F0.0
sg134
F94.0
sg135
F0.0
sg136
F0.0
sg137
F0.0
sg138
F0.0
sg139
F0.0
sg140
F0.0
sg141
F0.0
sg142
F0.0
sg143
F0.0
sg144
F0.0
sg145
F0.0
sg146
F0.0
sg147
F0.0
sg148
F0.0
sg149
F0.0
sg150
F0.0
sg151
F0.0
sg152
F0.0
sg153
F0.0
sg154
F0.0
sg155
F0.0
sg156
F0.0
sg157
F0.0
sg158
F0.0
sg159
F0.0
sg160
F0.0
sg161
F0.0
sg162
F0.0
sg163
F0.0
sg164
F0.0
sg165
F0.0
sg166
F0.0
sg167
F95.0
sg168
F95.0
stp343
s(S'94eed226f7bb32127fd8074c17aadc11'
p344
S'2014-11-27'
p345
tp346
(S'androidos/genbl.94eed226!olympus'
p347
(dp348
g6
F0.0
sg7
F0.0
sg8
F0.0
sg9
F0.0
sg10
F0.0
sg11
F0.0
sg12
F0.0
sg13
F0.0
sg14
F0.0
sg15
F0.0
sg16
F0.0
sg17
F0.0
sg18
F0.0
sg19
F0.0
sg20
F0.0
sg21
F0.0
sg22
F0.0
sg23
F0.0
sg24
F0.0
sg25
F0.0
sg26
F0.0
sg27
F0.0
sg28
F0.0
sg29
F0.0
sg30
F0.0
sg31
F0.0
sg32
F0.0
sg33
F0.0
sg34
F0.0
sg35
F0.0
sg36
F0.0
sg37
F0.0
sg38
F0.0
sg39
F0.0
sg40
F0.0
sg41
F0.0
sg42
F0.0
sg43
F0.0
sg44
F0.0
sg45
F0.0
sg46
F0.0
sg47
F0.0
sg48
F0.0
sg49
F0.0
sg50
F0.0
sg51
F0.0
sg52
F0.0
sg53
F0.0
sg54
F0.0
sg55
F0.0
sg56
F0.0
sg57
F0.0
sg58
F0.0
sg59
F0.0
sg60
F0.0
sg61
F0.0
sg62
F0.0
sg63
F0.0
sg64
F0.0
sg65
F0.0
sg66
F0.0
sg67
F0.0
sg68
F0.0
sg69
F0.0
sg70
F0.0
sg71
F0.0
sg72
F0.0
sg73
F0.0
sg74
F0.0
sg75
F0.0
sg76
F0.0
sg77
F0.0
sg78
F0.0
sg79
F0.0
sg80
F0.0
sg81
F0.0
sg82
F0.0
sg83
F0.0
sg84
F0.0
sg85
F0.0
sg86
F0.0
sg87
F0.0
sg88
F0.0
sg89
F0.0
sg90
F0.0
sg91
F0.0
sg92
F0.0
sg93
F0.0
sg94
F0.0
sg95
F0.0
sg96
F0.0
sg97
F0.0
sg98
F0.0
sg99
F0.0
sg100
F0.0
sg101
F0.0
sg102
F0.0
sg103
F0.0
sg104
F0.0
sg105
F0.0
sg106
F0.0
sg107
F0.0
sg108
F0.0
sg109
F0.0
sg110
F0.0
sg111
F0.0
sg112
F0.0
sg113
F0.0
sg114
F0.0
sg115
F0.0
sg116
F0.0
sg117
F0.0
sg118
F0.0
sg119
F0.0
sg120
F0.0
sg121
F0.0
sg122
F0.0
sg123
F0.0
sg124
F0.0
sg125
F0.0
sg126
F0.0
sg127
F0.0
sg128
F0.0
sg129
F0.0
sg130
F0.0
sg131
F0.0
sg132
F0.0
sg133
F0.0
sg134
F0.0
sg135
F0.0
sg136
F0.0
sg137
F0.0
sg138
F0.0
sg139
F0.0
sg140
F0.0
sg141
F0.0
sg142
F0.0
sg143
F0.0
sg144
F0.0
sg145
F0.0
sg146
F0.0
sg147
F0.0
sg148
F0.0
sg149
F0.0
sg150
F0.0
sg151
F0.0
sg152
F0.0
sg153
F0.0
sg154
F0.0
sg155
F0.0
sg156
F0.0
sg157
F0.0
sg158
F0.0
sg159
F0.0
sg160
F0.0
sg161
F0.0
sg162
F0.0
sg163
F0.0
sg164
F0.0
sg165
F0.0
sg166
F0.0
sg167
F0.0
sg168
F0.0
stp349
s(S'e7a58f986824a3f3399303965280d7e6'
p350
S'2014-05-10'
p351
tp352
(S'generic'
p353
(dp354
g6
F0.0
sg7
F0.0
sg8
F0.0
sg9
F0.0
sg10
F0.0
sg11
F0.0
sg12
F4.0
sg13
F0.0
sg14
F0.0
sg15
F0.0
sg16
F0.0
sg17
F3.0
sg18
F0.0
sg19
F0.0
sg20
F0.0
sg21
F0.0
sg22
F0.0
sg23
F0.0
sg24
F0.0
sg25
F0.0
sg26
F2.0
sg27
F0.0
sg28
F0.0
sg29
F0.0
sg30
F0.0
sg31
F0.0
sg32
F0.0
sg33
F0.0
sg34
F0.0
sg35
F2.0
sg36
F0.0
sg37
F0.0
sg38
F0.0
sg39
F0.0
sg40
F0.0
sg41
F0.0
sg42
F0.0
sg43
F434.0
sg44
F0.0
sg45
F0.0
sg46
F0.0
sg47
F0.0
sg48
F2.0
sg49
F5.0
sg50
F0.0
sg51
F0.0
sg52
F0.0
sg53
F0.0
sg54
F0.0
sg55
F1.0
sg56
F1.0
sg57
F0.0
sg58
F0.0
sg59
F0.0
sg60
F0.0
sg61
F0.0
sg62
F0.0
sg63
F0.0
sg64
F2.0
sg65
F0.0
sg66
F0.0
sg67
F55.0
sg68
F0.0
sg69
F7.0
sg70
F0.0
sg71
F0.0
sg72
F0.0
sg73
F0.0
sg74
F0.0
sg75
F0.0
sg76
F0.0
sg77
F0.0
sg78
F0.0
sg79
F0.0
sg80
F0.0
sg81
F0.0
sg82
F0.0
sg83
F0.0
sg84
F0.0
sg85
F0.0
sg86
F0.0
sg87
F0.0
sg88
F0.0
sg89
F0.0
sg90
F0.0
sg91
F0.0
sg92
F0.0
sg93
F0.0
sg94
F0.0
sg95
F22.0
sg96
F0.0
sg97
F0.0
sg98
F0.0
sg99
F0.0
sg100
F0.0
sg101
F0.0
sg102
F0.0
sg103
F0.0
sg104
F0.0
sg105
F0.0
sg106
F0.0
sg107
F0.0
sg108
F0.0
sg109
F0.0
sg110
F0.0
sg111
F0.0
sg112
F0.0
sg113
F41.0
sg114
F0.0
sg115
F0.0
sg116
F0.0
sg117
F0.0
sg118
F0.0
sg119
F0.0
sg120
F0.0
sg121
F0.0
sg122
F0.0
sg123
F0.0
sg124
F0.0
sg125
F0.0
sg126
F0.0
sg127
F0.0
sg128
F0.0
sg129
F0.0
sg130
F2.0
sg131
F0.0
sg132
F0.0
sg133
F0.0
sg134
F0.0
sg135
F0.0
sg136
F0.0
sg137
F0.0
sg138
F0.0
sg139
F0.0
sg140
F24.0
sg141
F0.0
sg142
F0.0
sg143
F0.0
sg144
F0.0
sg145
F0.0
sg146
F0.0
sg147
F0.0
sg148
F4.0
sg149
F0.0
sg150
F0.0
sg151
F0.0
sg152
F0.0
sg153
F0.0
sg154
F0.0
sg155
F0.0
sg156
F0.0
sg157
F0.0
sg158
F0.0
sg159
F0.0
sg160
F0.0
sg161
F9.0
sg162
F0.0
sg163
F0.0
sg164
F0.0
sg165
F0.0
sg166
F7.0
sg167
F0.0
sg168
F0.0
stp355
s(S'7ec27a8d526780d938043b701231a453'
p356
S'2014-05-22'
p357
tp358
(S'spyoo'
p359
(dp360
g6
F0.0
sg7
F0.0
sg8
F0.0
sg9
F0.0
sg10
F0.0
sg11
F0.0
sg12
F1.0
sg13
F0.0
sg14
F0.0
sg15
F0.0
sg16
F0.0
sg17
F0.0
sg18
F0.0
sg19
F0.0
sg20
F0.0
sg21
F0.0
sg22
F0.0
sg23
F0.0
sg24
F0.0
sg25
F0.0
sg26
F0.0
sg27
F0.0
sg28
F0.0
sg29
F0.0
sg30
F0.0
sg31
F0.0
sg32
F0.0
sg33
F0.0
sg34
F0.0
sg35
F0.0
sg36
F0.0
sg37
F0.0
sg38
F0.0
sg39
F0.0
sg40
F0.0
sg41
F0.0
sg42
F0.0
sg43
F4.0
sg44
F0.0
sg45
F0.0
sg46
F0.0
sg47
F0.0
sg48
F0.0
sg49
F0.0
sg50
F0.0
sg51
F0.0
sg52
F0.0
sg53
F0.0
sg54
F0.0
sg55
F0.0
sg56
F0.0
sg57
F0.0
sg58
F0.0
sg59
F0.0
sg60
F0.0
sg61
F0.0
sg62
F0.0
sg63
F0.0
sg64
F0.0
sg65
F0.0
sg66
F0.0
sg67
F6.0
sg68
F0.0
sg69
F0.0
sg70
F0.0
sg71
F0.0
sg72
F0.0
sg73
F0.0
sg74
F0.0
sg75
F0.0
sg76
F0.0
sg77
F0.0
sg78
F0.0
sg79
F0.0
sg80
F0.0
sg81
F0.0
sg82
F0.0
sg83
F0.0
sg84
F0.0
sg85
F0.0
sg86
F0.0
sg87
F0.0
sg88
F0.0
sg89
F0.0
sg90
F0.0
sg91
F0.0
sg92
F0.0
sg93
F0.0
sg94
F0.0
sg95
F0.0
sg96
F0.0
sg97
F0.0
sg98
F0.0
sg99
F0.0
sg100
F0.0
sg101
F0.0
sg102
F0.0
sg103
F0.0
sg104
F0.0
sg105
F0.0
sg106
F0.0
sg107
F0.0
sg108
F0.0
sg109
F0.0
sg110
F0.0
sg111
F0.0
sg112
F0.0
sg113
F0.0
sg114
F0.0
sg115
F0.0
sg116
F0.0
sg117
F0.0
sg118
F0.0
sg119
F0.0
sg120
F0.0
sg121
F0.0
sg122
F0.0
sg123
F2.0
sg124
F0.0
sg125
F0.0
sg126
F0.0
sg127
F0.0
sg128
F0.0
sg129
F0.0
sg130
F0.0
sg131
F0.0
sg132
F0.0
sg133
F0.0
sg134
F0.0
sg135
F0.0
sg136
F0.0
sg137
F0.0
sg138
F0.0
sg139
F0.0
sg140
F0.0
sg141
F0.0
sg142
F0.0
sg143
F0.0
sg144
F0.0
sg145
F0.0
sg146
F0.0
sg147
F0.0
sg148
F0.0
sg149
F0.0
sg150
F0.0
sg151
F0.0
sg152
F0.0
sg153
F0.0
sg154
F1.0
sg155
F0.0
sg156
F0.0
sg157
F0.0
sg158
F0.0
sg159
F0.0
sg160
F0.0
sg161
F0.0
sg162
F0.0
sg163
F0.0
sg164
F0.0
sg165
F0.0
sg166
F0.0
sg167
F0.0
sg168
F0.0
stp361
s(S'7749b67301825f8bdfcd9c3d8c93bbb8'
p362
S'2014-10-20'
p363
tp364
(S'opfake'
p365
(dp366
g6
F0.0
sg7
F0.0
sg8
F0.0
sg9
F0.0
sg10
F0.0
sg11
F2.0
sg12
F0.0
sg13
F0.0
sg14
F0.0
sg15
F0.0
sg16
F0.0
sg17
F0.0
sg18
F0.0
sg19
F0.0
sg20
F0.0
sg21
F0.0
sg22
F0.0
sg23
F0.0
sg24
F0.0
sg25
F0.0
sg26
F19.0
sg27
F0.0
sg28
F0.0
sg29
F0.0
sg30
F0.0
sg31
F0.0
sg32
F0.0
sg33
F0.0
sg34
F0.0
sg35
F0.0
sg36
F0.0
sg37
F0.0
sg38
F0.0
sg39
F0.0
sg40
F0.0
sg41
F1.0
sg42
F2.0
sg43
F0.0
sg44
F0.0
sg45
F0.0
sg46
F0.0
sg47
F0.0
sg48
F0.0
sg49
F0.0
sg50
F0.0
sg51
F0.0
sg52
F0.0
sg53
F0.0
sg54
F0.0
sg55
F0.0
sg56
F0.0
sg57
F0.0
sg58
F0.0
sg59
F2.0
sg60
F0.0
sg61
F0.0
sg62
F0.0
sg63
F0.0
sg64
F1.0
sg65
F0.0
sg66
F0.0
sg67
F68.0
sg68
F0.0
sg69
F0.0
sg70
F0.0
sg71
F0.0
sg72
F0.0
sg73
F0.0
sg74
F0.0
sg75
F0.0
sg76
F0.0
sg77
F0.0
sg78
F0.0
sg79
F0.0
sg80
F0.0
sg81
F0.0
sg82
F0.0
sg83
F0.0
sg84
F0.0
sg85
F0.0
sg86
F0.0
sg87
F0.0
sg88
F0.0
sg89
F0.0
sg90
F0.0
sg91
F0.0
sg92
F0.0
sg93
F0.0
sg94
F0.0
sg95
F45.0
sg96
F0.0
sg97
F0.0
sg98
F0.0
sg99
F0.0
sg100
F0.0
sg101
F0.0
sg102
F0.0
sg103
F0.0
sg104
F0.0
sg105
F0.0
sg106
F0.0
sg107
F0.0
sg108
F0.0
sg109
F0.0
sg110
F0.0
sg111
F0.0
sg112
F0.0
sg113
F0.0
sg114
F0.0
sg115
F0.0
sg116
F0.0
sg117
F0.0
sg118
F0.0
sg119
F0.0
sg120
F0.0
sg121
F0.0
sg122
F0.0
sg123
F0.0
sg124
F0.0
sg125
F0.0
sg126
F0.0
sg127
F0.0
sg128
F0.0
sg129
F0.0
sg130
F0.0
sg131
F0.0
sg132
F0.0
sg133
F0.0
sg134
F0.0
sg135
F0.0
sg136
F0.0
sg137
F0.0
sg138
F0.0
sg139
F0.0
sg140
F0.0
sg141
F0.0
sg142
F0.0
sg143
F0.0
sg144
F0.0
sg145
F0.0
sg146
F0.0
sg147
F0.0
sg148
F0.0
sg149
F0.0
sg150
F0.0
sg151
F0.0
sg152
F0.0
sg153
F0.0
sg154
F0.0
sg155
F0.0
sg156
F0.0
sg157
F0.0
sg158
F0.0
sg159
F0.0
sg160
F0.0
sg161
F1.0
sg162
F0.0
sg163
F0.0
sg164
F0.0
sg165
F0.0
sg166
F0.0
sg167
F0.0
sg168
F0.0
stp367
s(S'618c9389fb70a366b4ae3fa34ed0429d'
p368
S'2014-04-03'
p369
tp370
(S'generic'
p371
(dp372
g6
F0.0
sg7
F0.0
sg8
F0.0
sg9
F0.0
sg10
F0.0
sg11
F0.0
sg12
F8.0
sg13
F0.0
sg14
F0.0
sg15
F0.0
sg16
F0.0
sg17
F8.0
sg18
F0.0
sg19
F0.0
sg20
F0.0
sg21
F0.0
sg22
F0.0
sg23
F0.0
sg24
F0.0
sg25
F0.0
sg26
F0.0
sg27
F0.0
sg28
F0.0
sg29
F0.0
sg30
F0.0
sg31
F0.0
sg32
F0.0
sg33
F0.0
sg34
F0.0
sg35
F0.0
sg36
F0.0
sg37
F0.0
sg38
F0.0
sg39
F0.0
sg40
F0.0
sg41
F0.0
sg42
F0.0
sg43
F0.0
sg44
F0.0
sg45
F0.0
sg46
F0.0
sg47
F0.0
sg48
F0.0
sg49
F0.0
sg50
F0.0
sg51
F0.0
sg52
F0.0
sg53
F0.0
sg54
F0.0
sg55
F0.0
sg56
F5.0
sg57
F0.0
sg58
F19.0
sg59
F0.0
sg60
F0.0
sg61
F0.0
sg62
F0.0
sg63
F0.0
sg64
F0.0
sg65
F0.0
sg66
F0.0
sg67
F0.0
sg68
F0.0
sg69
F0.0
sg70
F0.0
sg71
F0.0
sg72
F0.0
sg73
F0.0
sg74
F0.0
sg75
F0.0
sg76
F0.0
sg77
F0.0
sg78
F0.0
sg79
F0.0
sg80
F0.0
sg81
F0.0
sg82
F0.0
sg83
F0.0
sg84
F0.0
sg85
F0.0
sg86
F0.0
sg87
F0.0
sg88
F0.0
sg89
F0.0
sg90
F0.0
sg91
F0.0
sg92
F0.0
sg93
F0.0
sg94
F0.0
sg95
F29.0
sg96
F0.0
sg97
F0.0
sg98
F0.0
sg99
F0.0
sg100
F0.0
sg101
F0.0
sg102
F0.0
sg103
F0.0
sg104
F0.0
sg105
F0.0
sg106
F0.0
sg107
F0.0
sg108
F0.0
sg109
F0.0
sg110
F0.0
sg111
F0.0
sg112
F0.0
sg113
F0.0
sg114
F0.0
sg115
F0.0
sg116
F0.0
sg117
F0.0
sg118
F0.0
sg119
F0.0
sg120
F0.0
sg121
F0.0
sg122
F0.0
sg123
F0.0
sg124
F0.0
sg125
F0.0
sg126
F0.0
sg127
F0.0
sg128
F0.0
sg129
F0.0
sg130
F0.0
sg131
F0.0
sg132
F0.0
sg133
F0.0
sg134
F5.0
sg135
F0.0
sg136
F0.0
sg137
F0.0
sg138
F0.0
sg139
F0.0
sg140
F0.0
sg141
F0.0
sg142
F0.0
sg143
F0.0
sg144
F0.0
sg145
F0.0
sg146
F0.0
sg147
F0.0
sg148
F0.0
sg149
F0.0
sg150
F0.0
sg151
F0.0
sg152
F0.0
sg153
F0.0
sg154
F0.0
sg155
F0.0
sg156
F0.0
sg157
F0.0
sg158
F0.0
sg159
F0.0
sg160
F0.0
sg161
F0.0
sg162
F0.0
sg163
F0.0
sg164
F0.0
sg165
F0.0
sg166
F0.0
sg167
F5.0
sg168
F0.0
stp373
s(S'b6f7902866f96fa2f5c4de05d6fa9f47'
p374
S'2014-05-26'
p375
tp376
(S'generic'
p377
(dp378
g6
F0.0
sg7
F0.0
sg8
F0.0
sg9
F0.0
sg10
F0.0
sg11
F0.0
sg12
F0.0
sg13
F0.0
sg14
F0.0
sg15
F0.0
sg16
F0.0
sg17
F0.0
sg18
F0.0
sg19
F0.0
sg20
F0.0
sg21
F0.0
sg22
F0.0
sg23
F0.0
sg24
F0.0
sg25
F0.0
sg26
F0.0
sg27
F0.0
sg28
F0.0
sg29
F0.0
sg30
F0.0
sg31
F0.0
sg32
F1.0
sg33
F0.0
sg34
F0.0
sg35
F0.0
sg36
F0.0
sg37
F0.0
sg38
F0.0
sg39
F0.0
sg40
F0.0
sg41
F0.0
sg42
F0.0
sg43
F0.0
sg44
F0.0
sg45
F0.0
sg46
F0.0
sg47
F0.0
sg48
F0.0
sg49
F1.0
sg50
F0.0
sg51
F0.0
sg52
F0.0
sg53
F0.0
sg54
F0.0
sg55
F0.0
sg56
F0.0
sg57
F0.0
sg58
F0.0
sg59
F0.0
sg60
F0.0
sg61
F0.0
sg62
F0.0
sg63
F0.0
sg64
F0.0
sg65
F0.0
sg66
F0.0
sg67
F7.0
sg68
F0.0
sg69
F0.0
sg70
F0.0
sg71
F0.0
sg72
F0.0
sg73
F0.0
sg74
F0.0
sg75
F0.0
sg76
F0.0
sg77
F0.0
sg78
F7.0
sg79
F0.0
sg80
F0.0
sg81
F0.0
sg82
F0.0
sg83
F0.0
sg84
F0.0
sg85
F0.0
sg86
F0.0
sg87
F0.0
sg88
F0.0
sg89
F0.0
sg90
F0.0
sg91
F0.0
sg92
F0.0
sg93
F0.0
sg94
F0.0
sg95
F10.0
sg96
F0.0
sg97
F0.0
sg98
F0.0
sg99
F0.0
sg100
F0.0
sg101
F0.0
sg102
F0.0
sg103
F0.0
sg104
F0.0
sg105
F0.0
sg106
F0.0
sg107
F0.0
sg108
F0.0
sg109
F0.0
sg110
F0.0
sg111
F0.0
sg112
F0.0
sg113
F0.0
sg114
F0.0
sg115
F0.0
sg116
F0.0
sg117
F0.0
sg118
F0.0
sg119
F0.0
sg120
F0.0
sg121
F0.0
sg122
F0.0
sg123
F0.0
sg124
F0.0
sg125
F0.0
sg126
F0.0
sg127
F0.0
sg128
F0.0
sg129
F0.0
sg130
F0.0
sg131
F0.0
sg132
F0.0
sg133
F0.0
sg134
F0.0
sg135
F0.0
sg136
F0.0
sg137
F0.0
sg138
F0.0
sg139
F0.0
sg140
F7.0
sg141
F0.0
sg142
F0.0
sg143
F0.0
sg144
F0.0
sg145
F0.0
sg146
F0.0
sg147
F0.0
sg148
F0.0
sg149
F0.0
sg150
F0.0
sg151
F0.0
sg152
F0.0
sg153
F0.0
sg154
F0.0
sg155
F0.0
sg156
F0.0
sg157
F0.0
sg158
F0.0
sg159
F0.0
sg160
F0.0
sg161
F0.0
sg162
F0.0
sg163
F0.0
sg164
F0.0
sg165
F0.0
sg166
F0.0
sg167
F0.0
sg168
F0.0
stp379
s(S'64e3284c5dda83db1d8b757b168912a3'
p380
S'2014-08-18'
p381
tp382
(S'smssend'
p383
(dp384
g6
F0.0
sg7
F0.0
sg8
F0.0
sg9
F0.0
sg10
F0.0
sg11
F0.0
sg12
F0.0
sg13
F0.0
sg14
F0.0
sg15
F0.0
sg16
F0.0
sg17
F0.0
sg18
F0.0
sg19
F0.0
sg20
F0.0
sg21
F0.0
sg22
F0.0
sg23
F0.0
sg24
F0.0
sg25
F0.0
sg26
F0.0
sg27
F0.0
sg28
F0.0
sg29
F0.0
sg30
F0.0
sg31
F0.0
sg32
F0.0
sg33
F0.0
sg34
F0.0
sg35
F0.0
sg36
F0.0
sg37
F0.0
sg38
F0.0
sg39
F0.0
sg40
F0.0
sg41
F0.0
sg42
F0.0
sg43
F0.0
sg44
F0.0
sg45
F0.0
sg46
F0.0
sg47
F0.0
sg48
F0.0
sg49
F0.0
sg50
F0.0
sg51
F0.0
sg52
F0.0
sg53
F0.0
sg54
F0.0
sg55
F0.0
sg56
F0.0
sg57
F0.0
sg58
F0.0
sg59
F0.0
sg60
F0.0
sg61
F0.0
sg62
F0.0
sg63
F0.0
sg64
F0.0
sg65
F0.0
sg66
F0.0
sg67
F0.0
sg68
F0.0
sg69
F0.0
sg70
F0.0
sg71
F0.0
sg72
F0.0
sg73
F0.0
sg74
F0.0
sg75
F0.0
sg76
F0.0
sg77
F0.0
sg78
F0.0
sg79
F0.0
sg80
F0.0
sg81
F0.0
sg82
F0.0
sg83
F0.0
sg84
F0.0
sg85
F0.0
sg86
F0.0
sg87
F0.0
sg88
F0.0
sg89
F0.0
sg90
F0.0
sg91
F0.0
sg92
F0.0
sg93
F0.0
sg94
F0.0
sg95
F0.0
sg96
F0.0
sg97
F0.0
sg98
F0.0
sg99
F0.0
sg100
F0.0
sg101
F0.0
sg102
F0.0
sg103
F0.0
sg104
F0.0
sg105
F0.0
sg106
F0.0
sg107
F0.0
sg108
F0.0
sg109
F0.0
sg110
F0.0
sg111
F0.0
sg112
F0.0
sg113
F0.0
sg114
F0.0
sg115
F0.0
sg116
F0.0
sg117
F0.0
sg118
F0.0
sg119
F0.0
sg120
F0.0
sg121
F0.0
sg122
F0.0
sg123
F0.0
sg124
F0.0
sg125
F0.0
sg126
F0.0
sg127
F0.0
sg128
F0.0
sg129
F0.0
sg130
F0.0
sg131
F0.0
sg132
F0.0
sg133
F0.0
sg134
F0.0
sg135
F0.0
sg136
F0.0
sg137
F0.0
sg138
F0.0
sg139
F0.0
sg140
F0.0
sg141
F0.0
sg142
F0.0
sg143
F0.0
sg144
F0.0
sg145
F0.0
sg146
F0.0
sg147
F0.0
sg148
F0.0
sg149
F0.0
sg150
F0.0
sg151
F0.0
sg152
F0.0
sg153
F0.0
sg154
F0.0
sg155
F0.0
sg156
F0.0
sg157
F0.0
sg158
F0.0
sg159
F0.0
sg160
F0.0
sg161
F0.0
sg162
F0.0
sg163
F0.0
sg164
F0.0
sg165
F0.0
sg166
F0.0
sg167
F0.0
sg168
F0.0
stp385
s(S'387f4a24a83e418c52270878c611e631'
p386
S'2014-03-28'
p387
tp388
(S'pua.androidos.startapp'
p389
(dp390
g6
F0.0
sg7
F0.0
sg8
F0.0
sg9
F0.0
sg10
F0.0
sg11
F0.0
sg12
F1.0
sg13
F0.0
sg14
F0.0
sg15
F0.0
sg16
F0.0
sg17
F0.0
sg18
F0.0
sg19
F0.0
sg20
F0.0
sg21
F0.0
sg22
F0.0
sg23
F0.0
sg24
F0.0
sg25
F0.0
sg26
F0.0
sg27
F0.0
sg28
F0.0
sg29
F0.0
sg30
F0.0
sg31
F0.0
sg32
F360.0
sg33
F0.0
sg34
F0.0
sg35
F1.0
sg36
F0.0
sg37
F0.0
sg38
F0.0
sg39
F0.0
sg40
F0.0
sg41
F0.0
sg42
F15.0
sg43
F0.0
sg44
F0.0
sg45
F0.0
sg46
F0.0
sg47
F0.0
sg48
F0.0
sg49
F0.0
sg50
F0.0
sg51
F0.0
sg52
F0.0
sg53
F0.0
sg54
F0.0
sg55
F0.0
sg56
F0.0
sg57
F0.0
sg58
F0.0
sg59
F0.0
sg60
F0.0
sg61
F0.0
sg62
F0.0
sg63
F0.0
sg64
F0.0
sg65
F0.0
sg66
F0.0
sg67
F0.0
sg68
F0.0
sg69
F0.0
sg70
F0.0
sg71
F0.0
sg72
F0.0
sg73
F0.0
sg74
F0.0
sg75
F0.0
sg76
F0.0
sg77
F0.0
sg78
F0.0
sg79
F0.0
sg80
F0.0
sg81
F0.0
sg82
F0.0
sg83
F0.0
sg84
F0.0
sg85
F0.0
sg86
F0.0
sg87
F0.0
sg88
F0.0
sg89
F0.0
sg90
F0.0
sg91
F0.0
sg92
F0.0
sg93
F0.0
sg94
F0.0
sg95
F31.0
sg96
F0.0
sg97
F0.0
sg98
F0.0
sg99
F0.0
sg100
F0.0
sg101
F0.0
sg102
F0.0
sg103
F0.0
sg104
F0.0
sg105
F0.0
sg106
F0.0
sg107
F0.0
sg108
F0.0
sg109
F0.0
sg110
F0.0
sg111
F0.0
sg112
F0.0
sg113
F0.0
sg114
F0.0
sg115
F0.0
sg116
F0.0
sg117
F0.0
sg118
F0.0
sg119
F0.0
sg120
F0.0
sg121
F0.0
sg122
F0.0
sg123
F0.0
sg124
F0.0
sg125
F14.0
sg126
F0.0
sg127
F0.0
sg128
F0.0
sg129
F0.0
sg130
F1.0
sg131
F0.0
sg132
F0.0
sg133
F0.0
sg134
F31.0
sg135
F0.0
sg136
F0.0
sg137
F0.0
sg138
F0.0
sg139
F0.0
sg140
F0.0
sg141
F0.0
sg142
F0.0
sg143
F0.0
sg144
F0.0
sg145
F0.0
sg146
F0.0
sg147
F0.0
sg148
F0.0
sg149
F0.0
sg150
F0.0
sg151
F0.0
sg152
F0.0
sg153
F0.0
sg154
F0.0
sg155
F0.0
sg156
F0.0
sg157
F0.0
sg158
F0.0
sg159
F0.0
sg160
F0.0
sg161
F0.0
sg162
F0.0
sg163
F0.0
sg164
F0.0
sg165
F0.0
sg166
F0.0
sg167
F31.0
sg168
F0.0
stp391
s(S'972fcb79d7edf24326ca47e4bcf387c3'
p392
S'2014-02-15'
p393
tp394
(S'copycat'
p395
(dp396
g6
F0.0
sg7
F0.0
sg8
F0.0
sg9
F0.0
sg10
F0.0
sg11
F0.0
sg12
F8.0
sg13
F0.0
sg14
F0.0
sg15
F0.0
sg16
F0.0
sg17
F1.0
sg18
F0.0
sg19
F0.0
sg20
F0.0
sg21
F0.0
sg22
F0.0
sg23
F0.0
sg24
F0.0
sg25
F0.0
sg26
F2.0
sg27
F0.0
sg28
F0.0
sg29
F0.0
sg30
F0.0
sg31
F0.0
sg32
F0.0
sg33
F0.0
sg34
F0.0
sg35
F4.0
sg36
F0.0
sg37
F0.0
sg38
F0.0
sg39
F0.0
sg40
F0.0
sg41
F0.0
sg42
F0.0
sg43
F4.0
sg44
F0.0
sg45
F0.0
sg46
F0.0
sg47
F0.0
sg48
F4.0
sg49
F165.0
sg50
F0.0
sg51
F0.0
sg52
F0.0
sg53
F0.0
sg54
F0.0
sg55
F0.0
sg56
F0.0
sg57
F0.0
sg58
F0.0
sg59
F0.0
sg60
F0.0
sg61
F0.0
sg62
F0.0
sg63
F0.0
sg64
F2.0
sg65
F0.0
sg66
F0.0
sg67
F7.0
sg68
F0.0
sg69
F0.0
sg70
F0.0
sg71
F0.0
sg72
F0.0
sg73
F0.0
sg74
F0.0
sg75
F0.0
sg76
F0.0
sg77
F0.0
sg78
F0.0
sg79
F0.0
sg80
F4.0
sg81
F0.0
sg82
F0.0
sg83
F0.0
sg84
F0.0
sg85
F0.0
sg86
F0.0
sg87
F0.0
sg88
F0.0
sg89
F0.0
sg90
F0.0
sg91
F0.0
sg92
F0.0
sg93
F0.0
sg94
F0.0
sg95
F1.0
sg96
F0.0
sg97
F0.0
sg98
F0.0
sg99
F4.0
sg100
F0.0
sg101
F0.0
sg102
F0.0
sg103
F0.0
sg104
F0.0
sg105
F0.0
sg106
F0.0
sg107
F0.0
sg108
F0.0
sg109
F0.0
sg110
F0.0
sg111
F0.0
sg112
F0.0
sg113
F0.0
sg114
F0.0
sg115
F0.0
sg116
F0.0
sg117
F0.0
sg118
F0.0
sg119
F0.0
sg120
F0.0
sg121
F0.0
sg122
F0.0
sg123
F0.0
sg124
F0.0
sg125
F2.0
sg126
F0.0
sg127
F0.0
sg128
F0.0
sg129
F0.0
sg130
F4.0
sg131
F0.0
sg132
F0.0
sg133
F0.0
sg134
F0.0
sg135
F0.0
sg136
F0.0
sg137
F0.0
sg138
F0.0
sg139
F0.0
sg140
F0.0
sg141
F0.0
sg142
F0.0
sg143
F0.0
sg144
F0.0
sg145
F0.0
sg146
F0.0
sg147
F0.0
sg148
F0.0
sg149
F0.0
sg150
F0.0
sg151
F0.0
sg152
F0.0
sg153
F0.0
sg154
F2.0
sg155
F0.0
sg156
F0.0
sg157
F0.0
sg158
F0.0
sg159
F0.0
sg160
F0.0
sg161
F2.0
sg162
F0.0
sg163
F0.0
sg164
F0.0
sg165
F0.0
sg166
F0.0
sg167
F0.0
sg168
F0.0
stp397
s(S'fb5da1996294b1d177d3673449c3fe82'
p398
S'2014-02-14'
p399
tp400
(S'generic'
p401
(dp402
g6
F0.0
sg7
F0.0
sg8
F0.0
sg9
F0.0
sg10
F0.0
sg11
F0.0
sg12
F0.0
sg13
F0.0
sg14
F0.0
sg15
F0.0
sg16
F0.0
sg17
F0.0
sg18
F0.0
sg19
F0.0
sg20
F0.0
sg21
F0.0
sg22
F0.0
sg23
F0.0
sg24
F0.0
sg25
F0.0
sg26
F0.0
sg27
F0.0
sg28
F0.0
sg29
F0.0
sg30
F0.0
sg31
F0.0
sg32
F0.0
sg33
F0.0
sg34
F0.0
sg35
F0.0
sg36
F0.0
sg37
F0.0
sg38
F0.0
sg39
F0.0
sg40
F1.0
sg41
F0.0
sg42
F0.0
sg43
F0.0
sg44
F0.0
sg45
F0.0
sg46
F0.0
sg47
F0.0
sg48
F0.0
sg49
F0.0
sg50
F0.0
sg51
F0.0
sg52
F0.0
sg53
F0.0
sg54
F0.0
sg55
F0.0
sg56
F0.0
sg57
F0.0
sg58
F0.0
sg59
F0.0
sg60
F0.0
sg61
F0.0
sg62
F0.0
sg63
F0.0
sg64
F102.0
sg65
F0.0
sg66
F0.0
sg67
F0.0
sg68
F0.0
sg69
F0.0
sg70
F0.0
sg71
F0.0
sg72
F0.0
sg73
F0.0
sg74
F0.0
sg75
F0.0
sg76
F0.0
sg77
F0.0
sg78
F0.0
sg79
F0.0
sg80
F0.0
sg81
F0.0
sg82
F0.0
sg83
F0.0
sg84
F0.0
sg85
F0.0
sg86
F0.0
sg87
F0.0
sg88
F0.0
sg89
F0.0
sg90
F2.0
sg91
F0.0
sg92
F0.0
sg93
F0.0
sg94
F0.0
sg95
F0.0
sg96
F0.0
sg97
F0.0
sg98
F0.0
sg99
F0.0
sg100
F0.0
sg101
F0.0
sg102
F0.0
sg103
F0.0
sg104
F0.0
sg105
F0.0
sg106
F0.0
sg107
F0.0
sg108
F0.0
sg109
F0.0
sg110
F0.0
sg111
F0.0
sg112
F0.0
sg113
F0.0
sg114
F0.0
sg115
F0.0
sg116
F0.0
sg117
F0.0
sg118
F0.0
sg119
F0.0
sg120
F0.0
sg121
F0.0
sg122
F0.0
sg123
F0.0
sg124
F0.0
sg125
F0.0
sg126
F0.0
sg127
F0.0
sg128
F0.0
sg129
F0.0
sg130
F0.0
sg131
F0.0
sg132
F0.0
sg133
F0.0
sg134
F0.0
sg135
F0.0
sg136
F0.0
sg137
F0.0
sg138
F0.0
sg139
F0.0
sg140
F0.0
sg141
F0.0
sg142
F0.0
sg143
F0.0
sg144
F0.0
sg145
F0.0
sg146
F0.0
sg147
F0.0
sg148
F0.0
sg149
F0.0
sg150
F0.0
sg151
F0.0
sg152
F0.0
sg153
F0.0
sg154
F0.0
sg155
F0.0
sg156
F0.0
sg157
F0.0
sg158
F0.0
sg159
F0.0
sg160
F0.0
sg161
F102.0
sg162
F0.0
sg163
F0.0
sg164
F0.0
sg165
F0.0
sg166
F0.0
sg167
F0.0
sg168
F0.0
stp403
s(S'4526b2fa0c203faf0b2487f718a44d1d'
p404
S'2014-02-11'
p405
tp406
(S'gappusin'
p407
(dp408
g6
F0.0
sg7
F0.0
sg8
F0.0
sg9
F0.0
sg10
F0.0
sg11
F0.0
sg12
F7.0
sg13
F0.0
sg14
F3.0
sg15
F0.0
sg16
F0.0
sg17
F2.0
sg18
F0.0
sg19
F0.0
sg20
F0.0
sg21
F0.0
sg22
F0.0
sg23
F0.0
sg24
F0.0
sg25
F0.0
sg26
F0.0
sg27
F0.0
sg28
F0.0
sg29
F0.0
sg30
F0.0
sg31
F0.0
sg32
F0.0
sg33
F3.0
sg34
F0.0
sg35
F7.0
sg36
F0.0
sg37
F0.0
sg38
F0.0
sg39
F0.0
sg40
F0.0
sg41
F0.0
sg42
F54.0
sg43
F11.0
sg44
F0.0
sg45
F0.0
sg46
F0.0
sg47
F0.0
sg48
F7.0
sg49
F0.0
sg50
F0.0
sg51
F0.0
sg52
F0.0
sg53
F0.0
sg54
F0.0
sg55
F0.0
sg56
F0.0
sg57
F0.0
sg58
F0.0
sg59
F0.0
sg60
F0.0
sg61
F0.0
sg62
F0.0
sg63
F0.0
sg64
F17.0
sg65
F0.0
sg66
F0.0
sg67
F0.0
sg68
F0.0
sg69
F0.0
sg70
F0.0
sg71
F0.0
sg72
F0.0
sg73
F0.0
sg74
F0.0
sg75
F0.0
sg76
F0.0
sg77
F0.0
sg78
F0.0
sg79
F0.0
sg80
F0.0
sg81
F0.0
sg82
F0.0
sg83
F0.0
sg84
F0.0
sg85
F0.0
sg86
F0.0
sg87
F0.0
sg88
F0.0
sg89
F0.0
sg90
F0.0
sg91
F0.0
sg92
F0.0
sg93
F0.0
sg94
F0.0
sg95
F9.0
sg96
F0.0
sg97
F0.0
sg98
F0.0
sg99
F0.0
sg100
F0.0
sg101
F0.0
sg102
F0.0
sg103
F0.0
sg104
F0.0
sg105
F0.0
sg106
F0.0
sg107
F0.0
sg108
F0.0
sg109
F0.0
sg110
F0.0
sg111
F0.0
sg112
F0.0
sg113
F0.0
sg114
F0.0
sg115
F0.0
sg116
F0.0
sg117
F0.0
sg118
F0.0
sg119
F0.0
sg120
F0.0
sg121
F0.0
sg122
F5.0
sg123
F0.0
sg124
F0.0
sg125
F0.0
sg126
F0.0
sg127
F0.0
sg128
F0.0
sg129
F0.0
sg130
F7.0
sg131
F0.0
sg132
F0.0
sg133
F0.0
sg134
F0.0
sg135
F0.0
sg136
F0.0
sg137
F0.0
sg138
F0.0
sg139
F0.0
sg140
F0.0
sg141
F0.0
sg142
F0.0
sg143
F0.0
sg144
F0.0
sg145
F0.0
sg146
F0.0
sg147
F0.0
sg148
F0.0
sg149
F0.0
sg150
F0.0
sg151
F0.0
sg152
F0.0
sg153
F0.0
sg154
F3.0
sg155
F0.0
sg156
F0.0
sg157
F0.0
sg158
F0.0
sg159
F0.0
sg160
F0.0
sg161
F17.0
sg162
F0.0
sg163
F0.0
sg164
F0.0
sg165
F0.0
sg166
F4.0
sg167
F3.0
sg168
F0.0
stp409
s(S'3fc8729353f6f562f36ee0d8e9e0c6c3'
p410
S'2014-04-05'
p411
tp412
(S'generic'
p413
(dp414
g6
F0.0
sg7
F0.0
sg8
F0.0
sg9
F0.0
sg10
F0.0
sg11
F0.0
sg12
F0.0
sg13
F0.0
sg14
F0.0
sg15
F0.0
sg16
F0.0
sg17
F0.0
sg18
F0.0
sg19
F0.0
sg20
F0.0
sg21
F0.0
sg22
F0.0
sg23
F0.0
sg24
F0.0
sg25
F0.0
sg26
F170.0
sg27
F0.0
sg28
F0.0
sg29
F0.0
sg30
F0.0
sg31
F0.0
sg32
F0.0
sg33
F0.0
sg34
F0.0
sg35
F0.0
sg36
F0.0
sg37
F0.0
sg38
F0.0
sg39
F0.0
sg40
F0.0
sg41
F0.0
sg42
F0.0
sg43
F0.0
sg44
F0.0
sg45
F0.0
sg46
F0.0
sg47
F0.0
sg48
F0.0
sg49
F16.0
sg50
F0.0
sg51
F0.0
sg52
F0.0
sg53
F0.0
sg54
F4.0
sg55
F0.0
sg56
F0.0
sg57
F0.0
sg58
F0.0
sg59
F0.0
sg60
F0.0
sg61
F0.0
sg62
F0.0
sg63
F0.0
sg64
F15.0
sg65
F0.0
sg66
F0.0
sg67
F0.0
sg68
F0.0
sg69
F0.0
sg70
F75.0
sg71
F0.0
sg72
F0.0
sg73
F0.0
sg74
F0.0
sg75
F0.0
sg76
F0.0
sg77
F0.0
sg78
F0.0
sg79
F0.0
sg80
F0.0
sg81
F0.0
sg82
F0.0
sg83
F0.0
sg84
F0.0
sg85
F0.0
sg86
F0.0
sg87
F0.0
sg88
F0.0
sg89
F0.0
sg90
F0.0
sg91
F0.0
sg92
F0.0
sg93
F0.0
sg94
F0.0
sg95
F113.0
sg96
F0.0
sg97
F0.0
sg98
F0.0
sg99
F0.0
sg100
F0.0
sg101
F0.0
sg102
F0.0
sg103
F0.0
sg104
F0.0
sg105
F16.0
sg106
F0.0
sg107
F0.0
sg108
F1.0
sg109
F0.0
sg110
F11.0
sg111
F0.0
sg112
F0.0
sg113
F0.0
sg114
F0.0
sg115
F0.0
sg116
F0.0
sg117
F0.0
sg118
F0.0
sg119
F0.0
sg120
F0.0
sg121
F0.0
sg122
F0.0
sg123
F0.0
sg124
F0.0
sg125
F0.0
sg126
F0.0
sg127
F0.0
sg128
F0.0
sg129
F0.0
sg130
F0.0
sg131
F0.0
sg132
F0.0
sg133
F0.0
sg134
F0.0
sg135
F0.0
sg136
F0.0
sg137
F0.0
sg138
F0.0
sg139
F0.0
sg140
F0.0
sg141
F0.0
sg142
F0.0
sg143
F0.0
sg144
F0.0
sg145
F0.0
sg146
F0.0
sg147
F0.0
sg148
F0.0
sg149
F0.0
sg150
F0.0
sg151
F0.0
sg152
F0.0
sg153
F0.0
sg154
F0.0
sg155
F0.0
sg156
F0.0
sg157
F0.0
sg158
F0.0
sg159
F0.0
sg160
F0.0
sg161
F15.0
sg162
F0.0
sg163
F0.0
sg164
F0.0
sg165
F0.0
sg166
F0.0
sg167
F0.0
sg168
F0.0
stp415
s(S'b9b8b12f5abbbb5dda79dfecc171b048'
p416
S'2014-12-19'
p417
tp418
(S'copycat'
p419
(dp420
g6
F0.0
sg7
F0.0
sg8
F0.0
sg9
F0.0
sg10
F0.0
sg11
F0.0
sg12
F0.0
sg13
F0.0
sg14
F0.0
sg15
F0.0
sg16
F0.0
sg17
F0.0
sg18
F0.0
sg19
F0.0
sg20
F0.0
sg21
F0.0
sg22
F0.0
sg23
F0.0
sg24
F0.0
sg25
F0.0
sg26
F0.0
sg27
F0.0
sg28
F0.0
sg29
F0.0
sg30
F0.0
sg31
F0.0
sg32
F0.0
sg33
F0.0
sg34
F0.0
sg35
F0.0
sg36
F0.0
sg37
F0.0
sg38
F0.0
sg39
F0.0
sg40
F0.0
sg41
F0.0
sg42
F0.0
sg43
F0.0
sg44
F0.0
sg45
F0.0
sg46
F0.0
sg47
F0.0
sg48
F0.0
sg49
F0.0
sg50
F0.0
sg51
F0.0
sg52
F0.0
sg53
F0.0
sg54
F0.0
sg55
F0.0
sg56
F0.0
sg57
F0.0
sg58
F0.0
sg59
F0.0
sg60
F0.0
sg61
F0.0
sg62
F0.0
sg63
F0.0
sg64
F0.0
sg65
F0.0
sg66
F0.0
sg67
F0.0
sg68
F0.0
sg69
F0.0
sg70
F0.0
sg71
F0.0
sg72
F0.0
sg73
F0.0
sg74
F0.0
sg75
F0.0
sg76
F0.0
sg77
F0.0
sg78
F0.0
sg79
F0.0
sg80
F0.0
sg81
F0.0
sg82
F0.0
sg83
F0.0
sg84
F0.0
sg85
F0.0
sg86
F0.0
sg87
F0.0
sg88
F0.0
sg89
F0.0
sg90
F0.0
sg91
F0.0
sg92
F0.0
sg93
F0.0
sg94
F0.0
sg95
F0.0
sg96
F0.0
sg97
F0.0
sg98
F0.0
sg99
F0.0
sg100
F0.0
sg101
F0.0
sg102
F0.0
sg103
F0.0
sg104
F0.0
sg105
F0.0
sg106
F0.0
sg107
F0.0
sg108
F0.0
sg109
F0.0
sg110
F0.0
sg111
F0.0
sg112
F0.0
sg113
F0.0
sg114
F0.0
sg115
F0.0
sg116
F0.0
sg117
F0.0
sg118
F0.0
sg119
F0.0
sg120
F0.0
sg121
F0.0
sg122
F0.0
sg123
F0.0
sg124
F0.0
sg125
F0.0
sg126
F0.0
sg127
F0.0
sg128
F0.0
sg129
F0.0
sg130
F0.0
sg131
F0.0
sg132
F0.0
sg133
F0.0
sg134
F0.0
sg135
F0.0
sg136
F0.0
sg137
F0.0
sg138
F0.0
sg139
F0.0
sg140
F0.0
sg141
F0.0
sg142
F0.0
sg143
F0.0
sg144
F0.0
sg145
F0.0
sg146
F0.0
sg147
F0.0
sg148
F0.0
sg149
F0.0
sg150
F0.0
sg151
F0.0
sg152
F0.0
sg153
F0.0
sg154
F0.0
sg155
F0.0
sg156
F0.0
sg157
F0.0
sg158
F0.0
sg159
F0.0
sg160
F0.0
sg161
F0.0
sg162
F0.0
sg163
F0.0
sg164
F0.0
sg165
F0.0
sg166
F0.0
sg167
F0.0
sg168
F0.0
stp421
s(S'70db5e535fd0001010100eae10f1c5c1'
p422
S'2014-05-05'
p423
tp424
(S'generic'
p425
(dp426
g6
F0.0
sg7
F0.0
sg8
F0.0
sg9
F0.0
sg10
F0.0
sg11
F0.0
sg12
F194.0
sg13
F0.0
sg14
F0.0
sg15
F0.0
sg16
F0.0
sg17
F0.0
sg18
F0.0
sg19
F0.0
sg20
F0.0
sg21
F0.0
sg22
F0.0
sg23
F0.0
sg24
F0.0
sg25
F0.0
sg26
F1344.0
sg27
F0.0
sg28
F0.0
sg29
F0.0
sg30
F0.0
sg31
F0.0
sg32
F0.0
sg33
F0.0
sg34
F0.0
sg35
F0.0
sg36
F0.0
sg37
F0.0
sg38
F0.0
sg39
F0.0
sg40
F0.0
sg41
F0.0
sg42
F208.0
sg43
F597.0
sg44
F0.0
sg45
F0.0
sg46
F0.0
sg47
F0.0
sg48
F0.0
sg49
F0.0
sg50
F0.0
sg51
F0.0
sg52
F0.0
sg53
F0.0
sg54
F0.0
sg55
F0.0
sg56
F0.0
sg57
F0.0
sg58
F431.0
sg59
F0.0
sg60
F0.0
sg61
F0.0
sg62
F0.0
sg63
F0.0
sg64
F0.0
sg65
F0.0
sg66
F0.0
sg67
F0.0
sg68
F0.0
sg69
F0.0
sg70
F427.0
sg71
F0.0
sg72
F0.0
sg73
F0.0
sg74
F0.0
sg75
F0.0
sg76
F0.0
sg77
F0.0
sg78
F0.0
sg79
F0.0
sg80
F0.0
sg81
F0.0
sg82
F0.0
sg83
F0.0
sg84
F0.0
sg85
F0.0
sg86
F0.0
sg87
F0.0
sg88
F0.0
sg89
F0.0
sg90
F0.0
sg91
F0.0
sg92
F0.0
sg93
F0.0
sg94
F0.0
sg95
F107.0
sg96
F0.0
sg97
F0.0
sg98
F0.0
sg99
F0.0
sg100
F0.0
sg101
F0.0
sg102
F0.0
sg103
F0.0
sg104
F0.0
sg105
F0.0
sg106
F0.0
sg107
F0.0
sg108
F0.0
sg109
F0.0
sg110
F0.0
sg111
F0.0
sg112
F0.0
sg113
F0.0
sg114
F0.0
sg115
F0.0
sg116
F0.0
sg117
F0.0
sg118
F0.0
sg119
F0.0
sg120
F0.0
sg121
F0.0
sg122
F188.0
sg123
F0.0
sg124
F0.0
sg125
F190.0
sg126
F0.0
sg127
F0.0
sg128
F0.0
sg129
F0.0
sg130
F0.0
sg131
F0.0
sg132
F0.0
sg133
F0.0
sg134
F0.0
sg135
F0.0
sg136
F0.0
sg137
F0.0
sg138
F0.0
sg139
F0.0
sg140
F0.0
sg141
F0.0
sg142
F0.0
sg143
F0.0
sg144
F0.0
sg145
F0.0
sg146
F0.0
sg147
F0.0
sg148
F1.0
sg149
F0.0
sg150
F0.0
sg151
F0.0
sg152
F0.0
sg153
F0.0
sg154
F0.0
sg155
F0.0
sg156
F0.0
sg157
F0.0
sg158
F0.0
sg159
F0.0
sg160
F0.0
sg161
F0.0
sg162
F0.0
sg163
F0.0
sg164
F0.0
sg165
F0.0
sg166
F0.0
sg167
F0.0
sg168
F0.0
stp427
s(S'3096bac11353e78e331c55f5940b29e7'
p428
S'2014-06-24'
p429
tp430
(S'fakeangry'
p431
(dp432
g6
F0.0
sg7
F0.0
sg8
F0.0
sg9
F0.0
sg10
F0.0
sg11
F30.0
sg12
F14.0
sg13
F0.0
sg14
F1.0
sg15
F0.0
sg16
F0.0
sg17
F10.0
sg18
F0.0
sg19
F0.0
sg20
F0.0
sg21
F0.0
sg22
F0.0
sg23
F0.0
sg24
F0.0
sg25
F0.0
sg26
F0.0
sg27
F0.0
sg28
F0.0
sg29
F0.0
sg30
F0.0
sg31
F0.0
sg32
F0.0
sg33
F0.0
sg34
F0.0
sg35
F1.0
sg36
F0.0
sg37
F0.0
sg38
F0.0
sg39
F0.0
sg40
F0.0
sg41
F0.0
sg42
F0.0
sg43
F15.0
sg44
F0.0
sg45
F0.0
sg46
F0.0
sg47
F0.0
sg48
F1.0
sg49
F124.0
sg50
F0.0
sg51
F0.0
sg52
F0.0
sg53
F0.0
sg54
F0.0
sg55
F0.0
sg56
F0.0
sg57
F0.0
sg58
F0.0
sg59
F30.0
sg60
F0.0
sg61
F0.0
sg62
F0.0
sg63
F0.0
sg64
F0.0
sg65
F0.0
sg66
F0.0
sg67
F0.0
sg68
F0.0
sg69
F15.0
sg70
F0.0
sg71
F0.0
sg72
F30.0
sg73
F0.0
sg74
F0.0
sg75
F0.0
sg76
F0.0
sg77
F0.0
sg78
F0.0
sg79
F0.0
sg80
F0.0
sg81
F0.0
sg82
F0.0
sg83
F0.0
sg84
F0.0
sg85
F0.0
sg86
F0.0
sg87
F0.0
sg88
F0.0
sg89
F0.0
sg90
F0.0
sg91
F0.0
sg92
F0.0
sg93
F0.0
sg94
F0.0
sg95
F1.0
sg96
F0.0
sg97
F0.0
sg98
F0.0
sg99
F0.0
sg100
F0.0
sg101
F0.0
sg102
F0.0
sg103
F0.0
sg104
F0.0
sg105
F0.0
sg106
F0.0
sg107
F0.0
sg108
F0.0
sg109
F0.0
sg110
F0.0
sg111
F0.0
sg112
F0.0
sg113
F8.0
sg114
F0.0
sg115
F0.0
sg116
F0.0
sg117
F0.0
sg118
F0.0
sg119
F0.0
sg120
F0.0
sg121
F0.0
sg122
F1.0
sg123
F0.0
sg124
F0.0
sg125
F0.0
sg126
F0.0
sg127
F0.0
sg128
F0.0
sg129
F0.0
sg130
F1.0
sg131
F0.0
sg132
F0.0
sg133
F0.0
sg134
F0.0
sg135
F0.0
sg136
F0.0
sg137
F0.0
sg138
F0.0
sg139
F0.0
sg140
F0.0
sg141
F0.0
sg142
F0.0
sg143
F0.0
sg144
F0.0
sg145
F0.0
sg146
F0.0
sg147
F0.0
sg148
F0.0
sg149
F0.0
sg150
F0.0
sg151
F0.0
sg152
F0.0
sg153
F0.0
sg154
F0.0
sg155
F0.0
sg156
F0.0
sg157
F0.0
sg158
F0.0
sg159
F0.0
sg160
F0.0
sg161
F0.0
sg162
F0.0
sg163
F0.0
sg164
F0.0
sg165
F0.0
sg166
F16.0
sg167
F0.0
sg168
F0.0
stp433
s(S'b61532be22f93e4826b22dd7eebc7c2e'
p434
S'2014-02-12'
p435
tp436
(S'generic'
p437
(dp438
g6
F0.0
sg7
F0.0
sg8
F0.0
sg9
F0.0
sg10
F0.0
sg11
F0.0
sg12
F0.0
sg13
F0.0
sg14
F16.0
sg15
F0.0
sg16
F0.0
sg17
F0.0
sg18
F0.0
sg19
F0.0
sg20
F0.0
sg21
F0.0
sg22
F0.0
sg23
F0.0
sg24
F0.0
sg25
F0.0
sg26
F15.0
sg27
F0.0
sg28
F0.0
sg29
F0.0
sg30
F0.0
sg31
F0.0
sg32
F0.0
sg33
F0.0
sg34
F0.0
sg35
F0.0
sg36
F0.0
sg37
F0.0
sg38
F0.0
sg39
F0.0
sg40
F0.0
sg41
F0.0
sg42
F0.0
sg43
F30.0
sg44
F0.0
sg45
F0.0
sg46
F0.0
sg47
F0.0
sg48
F0.0
sg49
F0.0
sg50
F0.0
sg51
F0.0
sg52
F0.0
sg53
F0.0
sg54
F0.0
sg55
F0.0
sg56
F14.0
sg57
F0.0
sg58
F7.0
sg59
F0.0
sg60
F0.0
sg61
F0.0
sg62
F0.0
sg63
F0.0
sg64
F0.0
sg65
F0.0
sg66
F0.0
sg67
F0.0
sg68
F0.0
sg69
F15.0
sg70
F0.0
sg71
F0.0
sg72
F0.0
sg73
F0.0
sg74
F0.0
sg75
F0.0
sg76
F0.0
sg77
F0.0
sg78
F0.0
sg79
F0.0
sg80
F0.0
sg81
F0.0
sg82
F0.0
sg83
F0.0
sg84
F0.0
sg85
F0.0
sg86
F0.0
sg87
F0.0
sg88
F0.0
sg89
F0.0
sg90
F0.0
sg91
F0.0
sg92
F0.0
sg93
F0.0
sg94
F0.0
sg95
F0.0
sg96
F0.0
sg97
F0.0
sg98
F0.0
sg99
F0.0
sg100
F0.0
sg101
F0.0
sg102
F0.0
sg103
F0.0
sg104
F0.0
sg105
F0.0
sg106
F0.0
sg107
F0.0
sg108
F0.0
sg109
F0.0
sg110
F0.0
sg111
F0.0
sg112
F0.0
sg113
F0.0
sg114
F0.0
sg115
F0.0
sg116
F0.0
sg117
F0.0
sg118
F0.0
sg119
F0.0
sg120
F0.0
sg121
F0.0
sg122
F0.0
sg123
F0.0
sg124
F0.0
sg125
F0.0
sg126
F0.0
sg127
F0.0
sg128
F0.0
sg129
F0.0
sg130
F0.0
sg131
F0.0
sg132
F0.0
sg133
F0.0
sg134
F19.0
sg135
F0.0
sg136
F0.0
sg137
F0.0
sg138
F0.0
sg139
F0.0
sg140
F0.0
sg141
F0.0
sg142
F0.0
sg143
F0.0
sg144
F0.0
sg145
F0.0
sg146
F0.0
sg147
F0.0
sg148
F0.0
sg149
F0.0
sg150
F0.0
sg151
F0.0
sg152
F0.0
sg153
F0.0
sg154
F0.0
sg155
F0.0
sg156
F0.0
sg157
F0.0
sg158
F0.0
sg159
F0.0
sg160
F0.0
sg161
F0.0
sg162
F0.0
sg163
F0.0
sg164
F0.0
sg165
F0.0
sg166
F0.0
sg167
F16.0
sg168
F18.0
stp439
s(S'22956bf5d99b59b5dd96e85363b24185'
p440
S'2014-12-01'
p441
tp442
(S'none'
p443
(dp444
g6
F0.0
sg7
F0.0
sg8
F0.0
sg9
F0.0
sg10
F0.0
sg11
F0.0
sg12
F0.0
sg13
F0.0
sg14
F0.0
sg15
F0.0
sg16
F0.0
sg17
F0.0
sg18
F0.0
sg19
F0.0
sg20
F0.0
sg21
F0.0
sg22
F0.0
sg23
F0.0
sg24
F0.0
sg25
F0.0
sg26
F154.0
sg27
F0.0
sg28
F0.0
sg29
F0.0
sg30
F0.0
sg31
F0.0
sg32
F0.0
sg33
F0.0
sg34
F0.0
sg35
F0.0
sg36
F0.0
sg37
F0.0
sg38
F0.0
sg39
F0.0
sg40
F0.0
sg41
F0.0
sg42
F0.0
sg43
F0.0
sg44
F0.0
sg45
F0.0
sg46
F0.0
sg47
F0.0
sg48
F0.0
sg49
F0.0
sg50
F0.0
sg51
F0.0
sg52
F0.0
sg53
F0.0
sg54
F0.0
sg55
F0.0
sg56
F0.0
sg57
F0.0
sg58
F0.0
sg59
F0.0
sg60
F0.0
sg61
F0.0
sg62
F0.0
sg63
F0.0
sg64
F0.0
sg65
F0.0
sg66
F0.0
sg67
F0.0
sg68
F0.0
sg69
F0.0
sg70
F0.0
sg71
F0.0
sg72
F0.0
sg73
F0.0
sg74
F0.0
sg75
F0.0
sg76
F0.0
sg77
F0.0
sg78
F0.0
sg79
F0.0
sg80
F0.0
sg81
F0.0
sg82
F0.0
sg83
F0.0
sg84
F0.0
sg85
F0.0
sg86
F0.0
sg87
F0.0
sg88
F0.0
sg89
F0.0
sg90
F0.0
sg91
F0.0
sg92
F0.0
sg93
F0.0
sg94
F0.0
sg95
F0.0
sg96
F0.0
sg97
F0.0
sg98
F0.0
sg99
F0.0
sg100
F0.0
sg101
F0.0
sg102
F0.0
sg103
F0.0
sg104
F0.0
sg105
F0.0
sg106
F0.0
sg107
F0.0
sg108
F0.0
sg109
F0.0
sg110
F0.0
sg111
F0.0
sg112
F0.0
sg113
F0.0
sg114
F0.0
sg115
F0.0
sg116
F0.0
sg117
F0.0
sg118
F0.0
sg119
F0.0
sg120
F0.0
sg121
F0.0
sg122
F0.0
sg123
F0.0
sg124
F0.0
sg125
F0.0
sg126
F0.0
sg127
F0.0
sg128
F0.0
sg129
F0.0
sg130
F0.0
sg131
F0.0
sg132
F0.0
sg133
F0.0
sg134
F0.0
sg135
F0.0
sg136
F0.0
sg137
F0.0
sg138
F0.0
sg139
F0.0
sg140
F0.0
sg141
F0.0
sg142
F0.0
sg143
F0.0
sg144
F0.0
sg145
F0.0
sg146
F0.0
sg147
F0.0
sg148
F0.0
sg149
F0.0
sg150
F0.0
sg151
F0.0
sg152
F0.0
sg153
F0.0
sg154
F0.0
sg155
F0.0
sg156
F0.0
sg157
F0.0
sg158
F0.0
sg159
F0.0
sg160
F0.0
sg161
F0.0
sg162
F0.0
sg163
F0.0
sg164
F0.0
sg165
F0.0
sg166
F0.0
sg167
F0.0
sg168
F0.0
stp445
s(S'9e1a7af29ac7d10494374374260ef7e3'
p446
S'2014-09-22'
p447
tp448
(S'generic'
p449
(dp450
g6
F0.0
sg7
F0.0
sg8
F0.0
sg9
F0.0
sg10
F0.0
sg11
F0.0
sg12
F0.0
sg13
F0.0
sg14
F0.0
sg15
F0.0
sg16
F0.0
sg17
F0.0
sg18
F0.0
sg19
F0.0
sg20
F0.0
sg21
F0.0
sg22
F0.0
sg23
F0.0
sg24
F0.0
sg25
F0.0
sg26
F0.0
sg27
F0.0
sg28
F0.0
sg29
F0.0
sg30
F0.0
sg31
F0.0
sg32
F0.0
sg33
F0.0
sg34
F0.0
sg35
F0.0
sg36
F0.0
sg37
F0.0
sg38
F0.0
sg39
F0.0
sg40
F0.0
sg41
F0.0
sg42
F0.0
sg43
F0.0
sg44
F0.0
sg45
F0.0
sg46
F0.0
sg47
F0.0
sg48
F0.0
sg49
F102.0
sg50
F0.0
sg51
F0.0
sg52
F0.0
sg53
F0.0
sg54
F0.0
sg55
F0.0
sg56
F0.0
sg57
F0.0
sg58
F0.0
sg59
F0.0
sg60
F0.0
sg61
F0.0
sg62
F0.0
sg63
F0.0
sg64
F0.0
sg65
F0.0
sg66
F0.0
sg67
F0.0
sg68
F0.0
sg69
F0.0
sg70
F0.0
sg71
F0.0
sg72
F0.0
sg73
F0.0
sg74
F0.0
sg75
F0.0
sg76
F0.0
sg77
F0.0
sg78
F0.0
sg79
F0.0
sg80
F0.0
sg81
F0.0
sg82
F0.0
sg83
F0.0
sg84
F0.0
sg85
F0.0
sg86
F0.0
sg87
F0.0
sg88
F0.0
sg89
F0.0
sg90
F0.0
sg91
F0.0
sg92
F0.0
sg93
F0.0
sg94
F0.0
sg95
F0.0
sg96
F0.0
sg97
F0.0
sg98
F0.0
sg99
F0.0
sg100
F0.0
sg101
F0.0
sg102
F0.0
sg103
F0.0
sg104
F0.0
sg105
F0.0
sg106
F0.0
sg107
F0.0
sg108
F0.0
sg109
F0.0
sg110
F0.0
sg111
F0.0
sg112
F0.0
sg113
F0.0
sg114
F0.0
sg115
F0.0
sg116
F0.0
sg117
F0.0
sg118
F0.0
sg119
F0.0
sg120
F0.0
sg121
F0.0
sg122
F0.0
sg123
F0.0
sg124
F0.0
sg125
F0.0
sg126
F0.0
sg127
F0.0
sg128
F0.0
sg129
F0.0
sg130
F0.0
sg131
F0.0
sg132
F0.0
sg133
F0.0
sg134
F0.0
sg135
F0.0
sg136
F0.0
sg137
F0.0
sg138
F0.0
sg139
F0.0
sg140
F0.0
sg141
F0.0
sg142
F0.0
sg143
F0.0
sg144
F0.0
sg145
F0.0
sg146
F0.0
sg147
F0.0
sg148
F0.0
sg149
F0.0
sg150
F0.0
sg151
F0.0
sg152
F0.0
sg153
F0.0
sg154
F0.0
sg155
F0.0
sg156
F0.0
sg157
F0.0
sg158
F0.0
sg159
F0.0
sg160
F0.0
sg161
F0.0
sg162
F0.0
sg163
F0.0
sg164
F0.0
sg165
F0.0
sg166
F0.0
sg167
F0.0
sg168
F0.0
stp451
s(S'a7f928fb723b0c41b3f49d6d8bc031c5'
p452
S'2014-05-06'
p453
tp454
(S'pup.highconfidence'
p455
(dp456
g6
F0.0
sg7
F0.0
sg8
F0.0
sg9
F0.0
sg10
F0.0
sg11
F0.0
sg12
F0.0
sg13
F0.0
sg14
F0.0
sg15
F0.0
sg16
F0.0
sg17
F0.0
sg18
F0.0
sg19
F1.0
sg20
F0.0
sg21
F0.0
sg22
F0.0
sg23
F0.0
sg24
F0.0
sg25
F0.0
sg26
F108.0
sg27
F0.0
sg28
F0.0
sg29
F0.0
sg30
F0.0
sg31
F0.0
sg32
F0.0
sg33
F0.0
sg34
F0.0
sg35
F0.0
sg36
F0.0
sg37
F0.0
sg38
F0.0
sg39
F0.0
sg40
F0.0
sg41
F0.0
sg42
F0.0
sg43
F0.0
sg44
F0.0
sg45
F0.0
sg46
F0.0
sg47
F0.0
sg48
F0.0
sg49
F0.0
sg50
F0.0
sg51
F0.0
sg52
F0.0
sg53
F0.0
sg54
F0.0
sg55
F0.0
sg56
F0.0
sg57
F0.0
sg58
F0.0
sg59
F0.0
sg60
F0.0
sg61
F0.0
sg62
F0.0
sg63
F0.0
sg64
F0.0
sg65
F0.0
sg66
F0.0
sg67
F216.0
sg68
F0.0
sg69
F0.0
sg70
F0.0
sg71
F0.0
sg72
F0.0
sg73
F0.0
sg74
F0.0
sg75
F0.0
sg76
F0.0
sg77
F0.0
sg78
F0.0
sg79
F0.0
sg80
F0.0
sg81
F0.0
sg82
F0.0
sg83
F0.0
sg84
F0.0
sg85
F0.0
sg86
F0.0
sg87
F0.0
sg88
F0.0
sg89
F0.0
sg90
F0.0
sg91
F0.0
sg92
F0.0
sg93
F0.0
sg94
F0.0
sg95
F0.0
sg96
F0.0
sg97
F0.0
sg98
F0.0
sg99
F0.0
sg100
F0.0
sg101
F0.0
sg102
F0.0
sg103
F0.0
sg104
F0.0
sg105
F0.0
sg106
F0.0
sg107
F0.0
sg108
F0.0
sg109
F0.0
sg110
F0.0
sg111
F0.0
sg112
F0.0
sg113
F0.0
sg114
F0.0
sg115
F0.0
sg116
F0.0
sg117
F0.0
sg118
F0.0
sg119
F0.0
sg120
F0.0
sg121
F0.0
sg122
F0.0
sg123
F0.0
sg124
F0.0
sg125
F0.0
sg126
F0.0
sg127
F0.0
sg128
F0.0
sg129
F0.0
sg130
F0.0
sg131
F0.0
sg132
F0.0
sg133
F0.0
sg134
F0.0
sg135
F0.0
sg136
F0.0
sg137
F0.0
sg138
F0.0
sg139
F0.0
sg140
F0.0
sg141
F0.0
sg142
F0.0
sg143
F0.0
sg144
F0.0
sg145
F0.0
sg146
F0.0
sg147
F0.0
sg148
F0.0
sg149
F0.0
sg150
F0.0
sg151
F0.0
sg152
F0.0
sg153
F0.0
sg154
F108.0
sg155
F0.0
sg156
F0.0
sg157
F0.0
sg158
F0.0
sg159
F0.0
sg160
F0.0
sg161
F0.0
sg162
F0.0
sg163
F0.0
sg164
F0.0
sg165
F0.0
sg166
F0.0
sg167
F0.0
sg168
F0.0
stp457
s(S'085908393642e118504e4812234ff9ea'
p458
S'2014-02-24'
p459
tp460
(S'copycat'
p461
(dp462
g6
F0.0
sg7
F0.0
sg8
F0.0
sg9
F0.0
sg10
F0.0
sg11
F0.0
sg12
F0.0
sg13
F0.0
sg14
F0.0
sg15
F0.0
sg16
F0.0
sg17
F0.0
sg18
F0.0
sg19
F0.0
sg20
F0.0
sg21
F0.0
sg22
F0.0
sg23
F0.0
sg24
F0.0
sg25
F0.0
sg26
F0.0
sg27
F0.0
sg28
F0.0
sg29
F0.0
sg30
F0.0
sg31
F0.0
sg32
F0.0
sg33
F0.0
sg34
F0.0
sg35
F0.0
sg36
F0.0
sg37
F0.0
sg38
F0.0
sg39
F0.0
sg40
F17.0
sg41
F0.0
sg42
F0.0
sg43
F0.0
sg44
F0.0
sg45
F0.0
sg46
F0.0
sg47
F0.0
sg48
F0.0
sg49
F0.0
sg50
F0.0
sg51
F0.0
sg52
F0.0
sg53
F0.0
sg54
F0.0
sg55
F0.0
sg56
F0.0
sg57
F0.0
sg58
F0.0
sg59
F0.0
sg60
F0.0
sg61
F24.0
sg62
F0.0
sg63
F0.0
sg64
F0.0
sg65
F0.0
sg66
F0.0
sg67
F80.0
sg68
F0.0
sg69
F0.0
sg70
F0.0
sg71
F0.0
sg72
F0.0
sg73
F0.0
sg74
F0.0
sg75
F0.0
sg76
F4.0
sg77
F0.0
sg78
F0.0
sg79
F0.0
sg80
F0.0
sg81
F0.0
sg82
F0.0
sg83
F0.0
sg84
F0.0
sg85
F0.0
sg86
F0.0
sg87
F0.0
sg88
F0.0
sg89
F0.0
sg90
F33.0
sg91
F0.0
sg92
F0.0
sg93
F0.0
sg94
F0.0
sg95
F0.0
sg96
F0.0
sg97
F0.0
sg98
F0.0
sg99
F0.0
sg100
F0.0
sg101
F0.0
sg102
F0.0
sg103
F0.0
sg104
F0.0
sg105
F0.0
sg106
F0.0
sg107
F0.0
sg108
F0.0
sg109
F0.0
sg110
F0.0
sg111
F0.0
sg112
F0.0
sg113
F0.0
sg114
F0.0
sg115
F0.0
sg116
F0.0
sg117
F0.0
sg118
F0.0
sg119
F0.0
sg120
F0.0
sg121
F0.0
sg122
F0.0
sg123
F0.0
sg124
F0.0
sg125
F0.0
sg126
F0.0
sg127
F0.0
sg128
F0.0
sg129
F0.0
sg130
F0.0
sg131
F0.0
sg132
F0.0
sg133
F0.0
sg134
F0.0
sg135
F0.0
sg136
F0.0
sg137
F32.0
sg138
F0.0
sg139
F0.0
sg140
F0.0
sg141
F0.0
sg142
F0.0
sg143
F0.0
sg144
F0.0
sg145
F0.0
sg146
F0.0
sg147
F0.0
sg148
F0.0
sg149
F0.0
sg150
F0.0
sg151
F0.0
sg152
F120.0
sg153
F0.0
sg154
F0.0
sg155
F5.0
sg156
F0.0
sg157
F0.0
sg158
F0.0
sg159
F0.0
sg160
F0.0
sg161
F0.0
sg162
F0.0
sg163
F0.0
sg164
F0.0
sg165
F0.0
sg166
F0.0
sg167
F0.0
sg168
F0.0
stp463
s(S'580742b753694afd2090375a9c119417'
p464
S'2014-05-28'
p465
tp466
(S'apprisk:generisk'
p467
(dp468
g6
F0.0
sg7
F0.0
sg8
F0.0
sg9
F0.0
sg10
F0.0
sg11
F0.0
sg12
F0.0
sg13
F0.0
sg14
F0.0
sg15
F0.0
sg16
F0.0
sg17
F0.0
sg18
F0.0
sg19
F0.0
sg20
F0.0
sg21
F0.0
sg22
F0.0
sg23
F0.0
sg24
F0.0
sg25
F0.0
sg26
F7.0
sg27
F0.0
sg28
F0.0
sg29
F0.0
sg30
F0.0
sg31
F0.0
sg32
F0.0
sg33
F1.0
sg34
F0.0
sg35
F0.0
sg36
F1.0
sg37
F0.0
sg38
F0.0
sg39
F0.0
sg40
F0.0
sg41
F0.0
sg42
F0.0
sg43
F0.0
sg44
F0.0
sg45
F0.0
sg46
F0.0
sg47
F0.0
sg48
F0.0
sg49
F0.0
sg50
F0.0
sg51
F0.0
sg52
F0.0
sg53
F0.0
sg54
F0.0
sg55
F0.0
sg56
F0.0
sg57
F0.0
sg58
F2.0
sg59
F0.0
sg60
F0.0
sg61
F0.0
sg62
F0.0
sg63
F0.0
sg64
F0.0
sg65
F0.0
sg66
F0.0
sg67
F3.0
sg68
F0.0
sg69
F0.0
sg70
F8.0
sg71
F0.0
sg72
F0.0
sg73
F0.0
sg74
F0.0
sg75
F0.0
sg76
F0.0
sg77
F0.0
sg78
F0.0
sg79
F0.0
sg80
F0.0
sg81
F0.0
sg82
F0.0
sg83
F0.0
sg84
F0.0
sg85
F0.0
sg86
F0.0
sg87
F0.0
sg88
F0.0
sg89
F0.0
sg90
F0.0
sg91
F0.0
sg92
F0.0
sg93
F0.0
sg94
F0.0
sg95
F2.0
sg96
F0.0
sg97
F0.0
sg98
F0.0
sg99
F0.0
sg100
F0.0
sg101
F0.0
sg102
F0.0
sg103
F0.0
sg104
F0.0
sg105
F0.0
sg106
F0.0
sg107
F0.0
sg108
F0.0
sg109
F0.0
sg110
F0.0
sg111
F0.0
sg112
F0.0
sg113
F0.0
sg114
F0.0
sg115
F0.0
sg116
F0.0
sg117
F0.0
sg118
F0.0
sg119
F0.0
sg120
F0.0
sg121
F0.0
sg122
F0.0
sg123
F0.0
sg124
F0.0
sg125
F0.0
sg126
F0.0
sg127
F0.0
sg128
F0.0
sg129
F0.0
sg130
F0.0
sg131
F0.0
sg132
F0.0
sg133
F0.0
sg134
F0.0
sg135
F0.0
sg136
F0.0
sg137
F0.0
sg138
F0.0
sg139
F0.0
sg140
F12.0
sg141
F0.0
sg142
F0.0
sg143
F0.0
sg144
F0.0
sg145
F0.0
sg146
F0.0
sg147
F0.0
sg148
F1.0
sg149
F0.0
sg150
F0.0
sg151
F0.0
sg152
F0.0
sg153
F0.0
sg154
F0.0
sg155
F0.0
sg156
F0.0
sg157
F0.0
sg158
F0.0
sg159
F0.0
sg160
F0.0
sg161
F0.0
sg162
F0.0
sg163
F0.0
sg164
F0.0
sg165
F0.0
sg166
F0.0
sg167
F1.0
sg168
F0.0
stp469
s(S'6558863f59192ecc1dedb13c56bb3816'
p470
S'2014-08-21'
p471
tp472
(S'copycat'
p473
(dp474
g6
F0.0
sg7
F0.0
sg8
F0.0
sg9
F0.0
sg10
F0.0
sg11
F197.0
sg12
F99.0
sg13
F0.0
sg14
F0.0
sg15
F0.0
sg16
F0.0
sg17
F197.0
sg18
F0.0
sg19
F0.0
sg20
F0.0
sg21
F0.0
sg22
F0.0
sg23
F0.0
sg24
F0.0
sg25
F0.0
sg26
F0.0
sg27
F0.0
sg28
F0.0
sg29
F0.0
sg30
F0.0
sg31
F0.0
sg32
F0.0
sg33
F1.0
sg34
F0.0
sg35
F188.0
sg36
F0.0
sg37
F0.0
sg38
F0.0
sg39
F0.0
sg40
F0.0
sg41
F197.0
sg42
F0.0
sg43
F196.0
sg44
F0.0
sg45
F0.0
sg46
F0.0
sg47
F0.0
sg48
F187.0
sg49
F0.0
sg50
F0.0
sg51
F0.0
sg52
F0.0
sg53
F0.0
sg54
F0.0
sg55
F0.0
sg56
F0.0
sg57
F0.0
sg58
F0.0
sg59
F197.0
sg60
F0.0
sg61
F2.0
sg62
F0.0
sg63
F0.0
sg64
F0.0
sg65
F0.0
sg66
F0.0
sg67
F297.0
sg68
F0.0
sg69
F0.0
sg70
F0.0
sg71
F0.0
sg72
F197.0
sg73
F0.0
sg74
F0.0
sg75
F0.0
sg76
F8.0
sg77
F0.0
sg78
F0.0
sg79
F0.0
sg80
F0.0
sg81
F0.0
sg82
F0.0
sg83
F0.0
sg84
F0.0
sg85
F0.0
sg86
F0.0
sg87
F0.0
sg88
F0.0
sg89
F0.0
sg90
F5.0
sg91
F0.0
sg92
F0.0
sg93
F0.0
sg94
F0.0
sg95
F0.0
sg96
F0.0
sg97
F0.0
sg98
F0.0
sg99
F0.0
sg100
F0.0
sg101
F0.0
sg102
F0.0
sg103
F0.0
sg104
F0.0
sg105
F0.0
sg106
F0.0
sg107
F0.0
sg108
F0.0
sg109
F0.0
sg110
F0.0
sg111
F0.0
sg112
F0.0
sg113
F0.0
sg114
F0.0
sg115
F0.0
sg116
F0.0
sg117
F0.0
sg118
F0.0
sg119
F0.0
sg120
F0.0
sg121
F0.0
sg122
F0.0
sg123
F0.0
sg124
F0.0
sg125
F0.0
sg126
F0.0
sg127
F0.0
sg128
F0.0
sg129
F0.0
sg130
F187.0
sg131
F0.0
sg132
F0.0
sg133
F0.0
sg134
F50.0
sg135
F0.0
sg136
F0.0
sg137
F0.0
sg138
F0.0
sg139
F0.0
sg140
F0.0
sg141
F0.0
sg142
F0.0
sg143
F0.0
sg144
F0.0
sg145
F0.0
sg146
F0.0
sg147
F0.0
sg148
F0.0
sg149
F0.0
sg150
F0.0
sg151
F0.0
sg152
F39.0
sg153
F0.0
sg154
F0.0
sg155
F0.0
sg156
F0.0
sg157
F0.0
sg158
F0.0
sg159
F0.0
sg160
F0.0
sg161
F0.0
sg162
F0.0
sg163
F0.0
sg164
F0.0
sg165
F0.0
sg166
F0.0
sg167
F53.0
sg168
F0.0
stp475
s(S'2c24a220e1c176f42979375f2d324ff7'
p476
S'2014-07-26'
p477
tp478
(S'copycat'
p479
(dp480
g6
F0.0
sg7
F0.0
sg8
F0.0
sg9
F0.0
sg10
F0.0
sg11
F0.0
sg12
F13.0
sg13
F0.0
sg14
F0.0
sg15
F0.0
sg16
F0.0
sg17
F13.0
sg18
F0.0
sg19
F0.0
sg20
F0.0
sg21
F0.0
sg22
F0.0
sg23
F0.0
sg24
F0.0
sg25
F0.0
sg26
F0.0
sg27
F0.0
sg28
F0.0
sg29
F0.0
sg30
F0.0
sg31
F0.0
sg32
F0.0
sg33
F1.0
sg34
F0.0
sg35
F30.0
sg36
F0.0
sg37
F0.0
sg38
F0.0
sg39
F0.0
sg40
F0.0
sg41
F0.0
sg42
F0.0
sg43
F24.0
sg44
F0.0
sg45
F0.0
sg46
F0.0
sg47
F0.0
sg48
F30.0
sg49
F0.0
sg50
F0.0
sg51
F0.0
sg52
F0.0
sg53
F0.0
sg54
F0.0
sg55
F0.0
sg56
F0.0
sg57
F0.0
sg58
F0.0
sg59
F0.0
sg60
F0.0
sg61
F0.0
sg62
F0.0
sg63
F0.0
sg64
F0.0
sg65
F0.0
sg66
F0.0
sg67
F26.0
sg68
F0.0
sg69
F0.0
sg70
F0.0
sg71
F0.0
sg72
F0.0
sg73
F0.0
sg74
F0.0
sg75
F0.0
sg76
F0.0
sg77
F0.0
sg78
F0.0
sg79
F0.0
sg80
F0.0
sg81
F0.0
sg82
F0.0
sg83
F0.0
sg84
F0.0
sg85
F0.0
sg86
F0.0
sg87
F0.0
sg88
F0.0
sg89
F0.0
sg90
F0.0
sg91
F0.0
sg92
F0.0
sg93
F0.0
sg94
F0.0
sg95
F0.0
sg96
F0.0
sg97
F0.0
sg98
F0.0
sg99
F0.0
sg100
F0.0
sg101
F0.0
sg102
F0.0
sg103
F0.0
sg104
F0.0
sg105
F0.0
sg106
F0.0
sg107
F0.0
sg108
F0.0
sg109
F0.0
sg110
F0.0
sg111
F0.0
sg112
F0.0
sg113
F0.0
sg114
F0.0
sg115
F0.0
sg116
F0.0
sg117
F0.0
sg118
F0.0
sg119
F0.0
sg120
F0.0
sg121
F0.0
sg122
F0.0
sg123
F0.0
sg124
F0.0
sg125
F0.0
sg126
F0.0
sg127
F0.0
sg128
F0.0
sg129
F0.0
sg130
F30.0
sg131
F0.0
sg132
F0.0
sg133
F0.0
sg134
F12.0
sg135
F0.0
sg136
F0.0
sg137
F0.0
sg138
F0.0
sg139
F0.0
sg140
F0.0
sg141
F0.0
sg142
F0.0
sg143
F0.0
sg144
F0.0
sg145
F0.0
sg146
F0.0
sg147
F0.0
sg148
F0.0
sg149
F0.0
sg150
F0.0
sg151
F0.0
sg152
F0.0
sg153
F0.0
sg154
F55.0
sg155
F0.0
sg156
F0.0
sg157
F0.0
sg158
F0.0
sg159
F0.0
sg160
F0.0
sg161
F0.0
sg162
F0.0
sg163
F0.0
sg164
F0.0
sg165
F0.0
sg166
F0.0
sg167
F12.0
sg168
F0.0
stp481
s(S'63c03dfff8fae662c51c55a36c31146a'
p482
S'2014-02-12'
p483
tp484
(S'generic'
p485
(dp486
g6
F0.0
sg7
F0.0
sg8
F0.0
sg9
F0.0
sg10
F0.0
sg11
F0.0
sg12
F9.0
sg13
F0.0
sg14
F2.0
sg15
F0.0
sg16
F0.0
sg17
F0.0
sg18
F0.0
sg19
F0.0
sg20
F0.0
sg21
F0.0
sg22
F0.0
sg23
F0.0
sg24
F0.0
sg25
F0.0
sg26
F4.0
sg27
F0.0
sg28
F0.0
sg29
F0.0
sg30
F0.0
sg31
F0.0
sg32
F0.0
sg33
F0.0
sg34
F0.0
sg35
F11.0
sg36
F0.0
sg37
F0.0
sg38
F0.0
sg39
F0.0
sg40
F0.0
sg41
F0.0
sg42
F12.0
sg43
F31.0
sg44
F0.0
sg45
F4.0
sg46
F0.0
sg47
F0.0
sg48
F11.0
sg49
F10.0
sg50
F0.0
sg51
F0.0
sg52
F0.0
sg53
F0.0
sg54
F0.0
sg55
F0.0
sg56
F0.0
sg57
F0.0
sg58
F0.0
sg59
F0.0
sg60
F0.0
sg61
F0.0
sg62
F0.0
sg63
F0.0
sg64
F27.0
sg65
F0.0
sg66
F0.0
sg67
F24.0
sg68
F0.0
sg69
F3.0
sg70
F0.0
sg71
F0.0
sg72
F0.0
sg73
F0.0
sg74
F0.0
sg75
F0.0
sg76
F0.0
sg77
F0.0
sg78
F0.0
sg79
F0.0
sg80
F0.0
sg81
F0.0
sg82
F0.0
sg83
F0.0
sg84
F0.0
sg85
F0.0
sg86
F0.0
sg87
F0.0
sg88
F0.0
sg89
F0.0
sg90
F0.0
sg91
F0.0
sg92
F0.0
sg93
F0.0
sg94
F0.0
sg95
F33.0
sg96
F0.0
sg97
F0.0
sg98
F0.0
sg99
F0.0
sg100
F0.0
sg101
F0.0
sg102
F0.0
sg103
F0.0
sg104
F0.0
sg105
F0.0
sg106
F0.0
sg107
F0.0
sg108
F0.0
sg109
F0.0
sg110
F0.0
sg111
F0.0
sg112
F0.0
sg113
F1.0
sg114
F0.0
sg115
F0.0
sg116
F0.0
sg117
F0.0
sg118
F0.0
sg119
F0.0
sg120
F0.0
sg121
F0.0
sg122
F2.0
sg123
F0.0
sg124
F0.0
sg125
F0.0
sg126
F0.0
sg127
F0.0
sg128
F0.0
sg129
F0.0
sg130
F11.0
sg131
F0.0
sg132
F0.0
sg133
F0.0
sg134
F5.0
sg135
F0.0
sg136
F0.0
sg137
F0.0
sg138
F0.0
sg139
F0.0
sg140
F0.0
sg141
F0.0
sg142
F0.0
sg143
F0.0
sg144
F0.0
sg145
F0.0
sg146
F0.0
sg147
F0.0
sg148
F0.0
sg149
F0.0
sg150
F0.0
sg151
F0.0
sg152
F0.0
sg153
F0.0
sg154
F0.0
sg155
F0.0
sg156
F0.0
sg157
F0.0
sg158
F0.0
sg159
F0.0
sg160
F0.0
sg161
F9.0
sg162
F0.0
sg163
F0.0
sg164
F0.0
sg165
F0.0
sg166
F4.0
sg167
F5.0
sg168
F0.0
stp487
s(S'377d7bc7e8ddfc2f53b2971936ad90ac'
p488
S'2014-06-12'
p489
tp490
(S'none'
p491
(dp492
g6
F0.0
sg7
F0.0
sg8
F0.0
sg9
F0.0
sg10
F0.0
sg11
F0.0
sg12
F0.0
sg13
F0.0
sg14
F0.0
sg15
F0.0
sg16
F0.0
sg17
F0.0
sg18
F0.0
sg19
F132.0
sg20
F0.0
sg21
F0.0
sg22
F0.0
sg23
F0.0
sg24
F0.0
sg25
F0.0
sg26
F21.0
sg27
F0.0
sg28
F0.0
sg29
F0.0
sg30
F0.0
sg31
F0.0
sg32
F0.0
sg33
F0.0
sg34
F0.0
sg35
F13.0
sg36
F0.0
sg37
F0.0
sg38
F0.0
sg39
F0.0
sg40
F0.0
sg41
F0.0
sg42
F64.0
sg43
F0.0
sg44
F0.0
sg45
F0.0
sg46
F0.0
sg47
F0.0
sg48
F13.0
sg49
F19.0
sg50
F0.0
sg51
F0.0
sg52
F0.0
sg53
F0.0
sg54
F0.0
sg55
F0.0
sg56
F0.0
sg57
F0.0
sg58
F6.0
sg59
F0.0
sg60
F0.0
sg61
F0.0
sg62
F0.0
sg63
F0.0
sg64
F6.0
sg65
F0.0
sg66
F0.0
sg67
F49.0
sg68
F0.0
sg69
F0.0
sg70
F6.0
sg71
F0.0
sg72
F0.0
sg73
F0.0
sg74
F0.0
sg75
F0.0
sg76
F0.0
sg77
F0.0
sg78
F0.0
sg79
F0.0
sg80
F0.0
sg81
F0.0
sg82
F0.0
sg83
F0.0
sg84
F0.0
sg85
F0.0
sg86
F0.0
sg87
F0.0
sg88
F0.0
sg89
F0.0
sg90
F0.0
sg91
F0.0
sg92
F0.0
sg93
F0.0
sg94
F0.0
sg95
F20.0
sg96
F0.0
sg97
F0.0
sg98
F0.0
sg99
F0.0
sg100
F0.0
sg101
F0.0
sg102
F0.0
sg103
F0.0
sg104
F0.0
sg105
F0.0
sg106
F0.0
sg107
F0.0
sg108
F0.0
sg109
F0.0
sg110
F0.0
sg111
F0.0
sg112
F0.0
sg113
F0.0
sg114
F0.0
sg115
F0.0
sg116
F0.0
sg117
F0.0
sg118
F0.0
sg119
F0.0
sg120
F0.0
sg121
F0.0
sg122
F0.0
sg123
F0.0
sg124
F0.0
sg125
F0.0
sg126
F0.0
sg127
F0.0
sg128
F0.0
sg129
F0.0
sg130
F13.0
sg131
F0.0
sg132
F0.0
sg133
F0.0
sg134
F0.0
sg135
F0.0
sg136
F0.0
sg137
F0.0
sg138
F0.0
sg139
F0.0
sg140
F0.0
sg141
F0.0
sg142
F0.0
sg143
F0.0
sg144
F0.0
sg145
F0.0
sg146
F0.0
sg147
F0.0
sg148
F0.0
sg149
F0.0
sg150
F0.0
sg151
F0.0
sg152
F0.0
sg153
F0.0
sg154
F20.0
sg155
F0.0
sg156
F0.0
sg157
F0.0
sg158
F0.0
sg159
F0.0
sg160
F0.0
sg161
F6.0
sg162
F0.0
sg163
F0.0
sg164
F0.0
sg165
F0.0
sg166
F12.0
sg167
F26.0
sg168
F0.0
stp493
s(S'24d990e2acf9578d94e39c549d6f5d7f'
p494
S'2014-02-15'
p495
tp496
(S'vdloader'
p497
(dp498
g6
F0.0
sg7
F0.0
sg8
F0.0
sg9
F0.0
sg10
F0.0
sg11
F0.0
sg12
F0.0
sg13
F0.0
sg14
F0.0
sg15
F0.0
sg16
F0.0
sg17
F0.0
sg18
F0.0
sg19
F0.0
sg20
F0.0
sg21
F0.0
sg22
F0.0
sg23
F0.0
sg24
F0.0
sg25
F0.0
sg26
F0.0
sg27
F0.0
sg28
F0.0
sg29
F0.0
sg30
F0.0
sg31
F0.0
sg32
F0.0
sg33
F0.0
sg34
F0.0
sg35
F0.0
sg36
F0.0
sg37
F0.0
sg38
F0.0
sg39
F0.0
sg40
F0.0
sg41
F0.0
sg42
F0.0
sg43
F0.0
sg44
F0.0
sg45
F0.0
sg46
F0.0
sg47
F0.0
sg48
F0.0
sg49
F0.0
sg50
F0.0
sg51
F0.0
sg52
F0.0
sg53
F0.0
sg54
F0.0
sg55
F0.0
sg56
F0.0
sg57
F0.0
sg58
F0.0
sg59
F0.0
sg60
F0.0
sg61
F0.0
sg62
F0.0
sg63
F0.0
sg64
F0.0
sg65
F0.0
sg66
F0.0
sg67
F0.0
sg68
F0.0
sg69
F0.0
sg70
F0.0
sg71
F0.0
sg72
F0.0
sg73
F0.0
sg74
F0.0
sg75
F0.0
sg76
F0.0
sg77
F0.0
sg78
F0.0
sg79
F0.0
sg80
F0.0
sg81
F0.0
sg82
F0.0
sg83
F0.0
sg84
F0.0
sg85
F0.0
sg86
F0.0
sg87
F0.0
sg88
F0.0
sg89
F0.0
sg90
F0.0
sg91
F0.0
sg92
F0.0
sg93
F0.0
sg94
F0.0
sg95
F66.0
sg96
F0.0
sg97
F0.0
sg98
F0.0
sg99
F0.0
sg100
F0.0
sg101
F0.0
sg102
F0.0
sg103
F0.0
sg104
F0.0
sg105
F0.0
sg106
F0.0
sg107
F0.0
sg108
F0.0
sg109
F0.0
sg110
F0.0
sg111
F0.0
sg112
F0.0
sg113
F0.0
sg114
F0.0
sg115
F0.0
sg116
F0.0
sg117
F0.0
sg118
F0.0
sg119
F0.0
sg120
F0.0
sg121
F0.0
sg122
F0.0
sg123
F0.0
sg124
F0.0
sg125
F0.0
sg126
F0.0
sg127
F0.0
sg128
F0.0
sg129
F0.0
sg130
F0.0
sg131
F0.0
sg132
F0.0
sg133
F0.0
sg134
F0.0
sg135
F0.0
sg136
F0.0
sg137
F0.0
sg138
F0.0
sg139
F0.0
sg140
F0.0
sg141
F0.0
sg142
F0.0
sg143
F0.0
sg144
F0.0
sg145
F0.0
sg146
F0.0
sg147
F0.0
sg148
F0.0
sg149
F0.0
sg150
F0.0
sg151
F0.0
sg152
F0.0
sg153
F0.0
sg154
F0.0
sg155
F0.0
sg156
F0.0
sg157
F0.0
sg158
F0.0
sg159
F0.0
sg160
F0.0
sg161
F0.0
sg162
F0.0
sg163
F0.0
sg164
F0.0
sg165
F0.0
sg166
F0.0
sg167
F0.0
sg168
F0.0
stp499
s(S'56500a265643b42b8333737053255c0d'
p500
S'2014-10-09'
p501
tp502
(S'copycat'
p503
(dp504
g6
F0.0
sg7
F0.0
sg8
F0.0
sg9
F0.0
sg10
F0.0
sg11
F0.0
sg12
F87.0
sg13
F0.0
sg14
F0.0
sg15
F0.0
sg16
F0.0
sg17
F87.0
sg18
F0.0
sg19
F0.0
sg20
F0.0
sg21
F0.0
sg22
F0.0
sg23
F0.0
sg24
F0.0
sg25
F0.0
sg26
F87.0
sg27
F0.0
sg28
F0.0
sg29
F0.0
sg30
F0.0
sg31
F0.0
sg32
F0.0
sg33
F0.0
sg34
F0.0
sg35
F0.0
sg36
F0.0
sg37
F0.0
sg38
F0.0
sg39
F0.0
sg40
F0.0
sg41
F0.0
sg42
F0.0
sg43
F0.0
sg44
F0.0
sg45
F0.0
sg46
F0.0
sg47
F0.0
sg48
F0.0
sg49
F0.0
sg50
F0.0
sg51
F0.0
sg52
F0.0
sg53
F0.0
sg54
F0.0
sg55
F0.0
sg56
F0.0
sg57
F0.0
sg58
F0.0
sg59
F0.0
sg60
F0.0
sg61
F0.0
sg62
F0.0
sg63
F0.0
sg64
F0.0
sg65
F0.0
sg66
F0.0
sg67
F0.0
sg68
F0.0
sg69
F0.0
sg70
F0.0
sg71
F0.0
sg72
F0.0
sg73
F0.0
sg74
F0.0
sg75
F0.0
sg76
F0.0
sg77
F0.0
sg78
F0.0
sg79
F0.0
sg80
F0.0
sg81
F0.0
sg82
F0.0
sg83
F0.0
sg84
F0.0
sg85
F0.0
sg86
F0.0
sg87
F0.0
sg88
F0.0
sg89
F0.0
sg90
F0.0
sg91
F0.0
sg92
F0.0
sg93
F0.0
sg94
F0.0
sg95
F0.0
sg96
F0.0
sg97
F0.0
sg98
F0.0
sg99
F0.0
sg100
F0.0
sg101
F0.0
sg102
F0.0
sg103
F0.0
sg104
F0.0
sg105
F0.0
sg106
F0.0
sg107
F0.0
sg108
F0.0
sg109
F0.0
sg110
F0.0
sg111
F0.0
sg112
F0.0
sg113
F0.0
sg114
F0.0
sg115
F0.0
sg116
F0.0
sg117
F0.0
sg118
F0.0
sg119
F0.0
sg120
F0.0
sg121
F0.0
sg122
F0.0
sg123
F0.0
sg124
F0.0
sg125
F0.0
sg126
F0.0
sg127
F0.0
sg128
F0.0
sg129
F0.0
sg130
F0.0
sg131
F0.0
sg132
F0.0
sg133
F0.0
sg134
F0.0
sg135
F0.0
sg136
F0.0
sg137
F0.0
sg138
F0.0
sg139
F0.0
sg140
F0.0
sg141
F0.0
sg142
F0.0
sg143
F0.0
sg144
F0.0
sg145
F0.0
sg146
F0.0
sg147
F0.0
sg148
F0.0
sg149
F0.0
sg150
F0.0
sg151
F0.0
sg152
F0.0
sg153
F0.0
sg154
F0.0
sg155
F0.0
sg156
F0.0
sg157
F0.0
sg158
F0.0
sg159
F0.0
sg160
F0.0
sg161
F0.0
sg162
F0.0
sg163
F0.0
sg164
F0.0
sg165
F0.0
sg166
F0.0
sg167
F0.0
sg168
F0.0
stp505
s(S'fe83720de08389c74fb1f97bbf8a0cd3'
p506
S'2014-02-08'
p507
tp508
(S'copycat'
p509
(dp510
g6
F0.0
sg7
F0.0
sg8
F0.0
sg9
F0.0
sg10
F0.0
sg11
F0.0
sg12
F0.0
sg13
F0.0
sg14
F0.0
sg15
F0.0
sg16
F0.0
sg17
F0.0
sg18
F0.0
sg19
F0.0
sg20
F0.0
sg21
F0.0
sg22
F0.0
sg23
F0.0
sg24
F0.0
sg25
F0.0
sg26
F0.0
sg27
F0.0
sg28
F0.0
sg29
F0.0
sg30
F0.0
sg31
F0.0
sg32
F0.0
sg33
F0.0
sg34
F0.0
sg35
F0.0
sg36
F0.0
sg37
F0.0
sg38
F0.0
sg39
F0.0
sg40
F0.0
sg41
F0.0
sg42
F0.0
sg43
F0.0
sg44
F0.0
sg45
F0.0
sg46
F0.0
sg47
F0.0
sg48
F0.0
sg49
F0.0
sg50
F0.0
sg51
F0.0
sg52
F0.0
sg53
F0.0
sg54
F0.0
sg55
F0.0
sg56
F0.0
sg57
F0.0
sg58
F0.0
sg59
F0.0
sg60
F0.0
sg61
F0.0
sg62
F0.0
sg63
F0.0
sg64
F0.0
sg65
F0.0
sg66
F0.0
sg67
F0.0
sg68
F0.0
sg69
F0.0
sg70
F0.0
sg71
F0.0
sg72
F0.0
sg73
F0.0
sg74
F0.0
sg75
F0.0
sg76
F0.0
sg77
F0.0
sg78
F0.0
sg79
F0.0
sg80
F0.0
sg81
F0.0
sg82
F0.0
sg83
F0.0
sg84
F0.0
sg85
F0.0
sg86
F0.0
sg87
F0.0
sg88
F0.0
sg89
F0.0
sg90
F0.0
sg91
F0.0
sg92
F0.0
sg93
F0.0
sg94
F0.0
sg95
F174.0
sg96
F0.0
sg97
F0.0
sg98
F0.0
sg99
F0.0
sg100
F0.0
sg101
F0.0
sg102
F0.0
sg103
F0.0
sg104
F0.0
sg105
F0.0
sg106
F0.0
sg107
F0.0
sg108
F0.0
sg109
F0.0
sg110
F0.0
sg111
F0.0
sg112
F0.0
sg113
F0.0
sg114
F0.0
sg115
F0.0
sg116
F0.0
sg117
F0.0
sg118
F0.0
sg119
F0.0
sg120
F0.0
sg121
F0.0
sg122
F0.0
sg123
F0.0
sg124
F0.0
sg125
F0.0
sg126
F0.0
sg127
F0.0
sg128
F0.0
sg129
F0.0
sg130
F0.0
sg131
F0.0
sg132
F0.0
sg133
F0.0
sg134
F0.0
sg135
F0.0
sg136
F0.0
sg137
F0.0
sg138
F0.0
sg139
F0.0
sg140
F0.0
sg141
F0.0
sg142
F0.0
sg143
F0.0
sg144
F0.0
sg145
F0.0
sg146
F0.0
sg147
F0.0
sg148
F0.0
sg149
F0.0
sg150
F0.0
sg151
F0.0
sg152
F0.0
sg153
F0.0
sg154
F0.0
sg155
F0.0
sg156
F0.0
sg157
F0.0
sg158
F0.0
sg159
F0.0
sg160
F0.0
sg161
F0.0
sg162
F0.0
sg163
F0.0
sg164
F0.0
sg165
F0.0
sg166
F0.0
sg167
F0.0
sg168
F0.0
stp511
s(S'c9f52d32105479ff80ac4f70de12ff44'
p512
S'2014-08-15'
p513
tp514
(S'android.adware.dowgin.zy'
p515
(dp516
g6
F0.0
sg7
F0.0
sg8
F0.0
sg9
F0.0
sg10
F0.0
sg11
F0.0
sg12
F0.0
sg13
F0.0
sg14
F0.0
sg15
F0.0
sg16
F0.0
sg17
F0.0
sg18
F0.0
sg19
F0.0
sg20
F0.0
sg21
F0.0
sg22
F0.0
sg23
F0.0
sg24
F0.0
sg25
F0.0
sg26
F0.0
sg27
F0.0
sg28
F0.0
sg29
F0.0
sg30
F0.0
sg31
F0.0
sg32
F0.0
sg33
F0.0
sg34
F0.0
sg35
F0.0
sg36
F0.0
sg37
F0.0
sg38
F0.0
sg39
F0.0
sg40
F0.0
sg41
F0.0
sg42
F0.0
sg43
F0.0
sg44
F0.0
sg45
F0.0
sg46
F0.0
sg47
F0.0
sg48
F0.0
sg49
F0.0
sg50
F0.0
sg51
F0.0
sg52
F0.0
sg53
F0.0
sg54
F0.0
sg55
F0.0
sg56
F0.0
sg57
F0.0
sg58
F0.0
sg59
F0.0
sg60
F0.0
sg61
F16.0
sg62
F0.0
sg63
F0.0
sg64
F0.0
sg65
F0.0
sg66
F0.0
sg67
F0.0
sg68
F0.0
sg69
F0.0
sg70
F0.0
sg71
F0.0
sg72
F0.0
sg73
F0.0
sg74
F0.0
sg75
F0.0
sg76
F0.0
sg77
F0.0
sg78
F0.0
sg79
F0.0
sg80
F0.0
sg81
F0.0
sg82
F0.0
sg83
F0.0
sg84
F0.0
sg85
F0.0
sg86
F0.0
sg87
F0.0
sg88
F0.0
sg89
F0.0
sg90
F16.0
sg91
F0.0
sg92
F0.0
sg93
F0.0
sg94
F0.0
sg95
F72.0
sg96
F0.0
sg97
F0.0
sg98
F0.0
sg99
F0.0
sg100
F0.0
sg101
F0.0
sg102
F0.0
sg103
F0.0
sg104
F0.0
sg105
F0.0
sg106
F0.0
sg107
F0.0
sg108
F0.0
sg109
F0.0
sg110
F0.0
sg111
F0.0
sg112
F0.0
sg113
F0.0
sg114
F0.0
sg115
F0.0
sg116
F0.0
sg117
F0.0
sg118
F0.0
sg119
F0.0
sg120
F0.0
sg121
F0.0
sg122
F0.0
sg123
F0.0
sg124
F0.0
sg125
F0.0
sg126
F0.0
sg127
F0.0
sg128
F0.0
sg129
F0.0
sg130
F0.0
sg131
F0.0
sg132
F0.0
sg133
F0.0
sg134
F0.0
sg135
F0.0
sg136
F0.0
sg137
F0.0
sg138
F0.0
sg139
F0.0
sg140
F0.0
sg141
F0.0
sg142
F0.0
sg143
F0.0
sg144
F0.0
sg145
F0.0
sg146
F0.0
sg147
F0.0
sg148
F0.0
sg149
F0.0
sg150
F0.0
sg151
F0.0
sg152
F0.0
sg153
F0.0
sg154
F0.0
sg155
F0.0
sg156
F0.0
sg157
F0.0
sg158
F0.0
sg159
F0.0
sg160
F0.0
sg161
F0.0
sg162
F0.0
sg163
F0.0
sg164
F0.0
sg165
F0.0
sg166
F0.0
sg167
F0.0
sg168
F0.0
stp517
s(S'ce720f7d8b7d20e958c73e93ef6db26f'
p518
S'2014-12-28'
p519
tp520
(S'copycat'
p521
(dp522
g6
F0.0
sg7
F0.0
sg8
F0.0
sg9
F0.0
sg10
F0.0
sg11
F0.0
sg12
F0.0
sg13
F0.0
sg14
F0.0
sg15
F0.0
sg16
F0.0
sg17
F0.0
sg18
F0.0
sg19
F0.0
sg20
F0.0
sg21
F0.0
sg22
F0.0
sg23
F0.0
sg24
F0.0
sg25
F0.0
sg26
F0.0
sg27
F0.0
sg28
F0.0
sg29
F0.0
sg30
F0.0
sg31
F0.0
sg32
F0.0
sg33
F0.0
sg34
F0.0
sg35
F0.0
sg36
F0.0
sg37
F0.0
sg38
F0.0
sg39
F0.0
sg40
F0.0
sg41
F0.0
sg42
F0.0
sg43
F0.0
sg44
F0.0
sg45
F0.0
sg46
F0.0
sg47
F0.0
sg48
F0.0
sg49
F0.0
sg50
F0.0
sg51
F0.0
sg52
F0.0
sg53
F0.0
sg54
F0.0
sg55
F0.0
sg56
F0.0
sg57
F0.0
sg58
F0.0
sg59
F0.0
sg60
F0.0
sg61
F0.0
sg62
F0.0
sg63
F0.0
sg64
F0.0
sg65
F0.0
sg66
F0.0
sg67
F0.0
sg68
F0.0
sg69
F0.0
sg70
F0.0
sg71
F0.0
sg72
F0.0
sg73
F0.0
sg74
F0.0
sg75
F0.0
sg76
F0.0
sg77
F0.0
sg78
F0.0
sg79
F0.0
sg80
F0.0
sg81
F0.0
sg82
F0.0
sg83
F0.0
sg84
F0.0
sg85
F0.0
sg86
F0.0
sg87
F0.0
sg88
F0.0
sg89
F0.0
sg90
F0.0
sg91
F0.0
sg92
F0.0
sg93
F0.0
sg94
F0.0
sg95
F0.0
sg96
F0.0
sg97
F0.0
sg98
F0.0
sg99
F0.0
sg100
F0.0
sg101
F0.0
sg102
F0.0
sg103
F0.0
sg104
F0.0
sg105
F0.0
sg106
F0.0
sg107
F0.0
sg108
F0.0
sg109
F0.0
sg110
F0.0
sg111
F0.0
sg112
F0.0
sg113
F0.0
sg114
F0.0
sg115
F0.0
sg116
F0.0
sg117
F0.0
sg118
F0.0
sg119
F0.0
sg120
F0.0
sg121
F0.0
sg122
F0.0
sg123
F0.0
sg124
F0.0
sg125
F0.0
sg126
F0.0
sg127
F0.0
sg128
F0.0
sg129
F0.0
sg130
F0.0
sg131
F0.0
sg132
F0.0
sg133
F0.0
sg134
F0.0
sg135
F0.0
sg136
F0.0
sg137
F0.0
sg138
F0.0
sg139
F0.0
sg140
F0.0
sg141
F0.0
sg142
F0.0
sg143
F0.0
sg144
F0.0
sg145
F0.0
sg146
F0.0
sg147
F0.0
sg148
F0.0
sg149
F0.0
sg150
F0.0
sg151
F0.0
sg152
F0.0
sg153
F0.0
sg154
F0.0
sg155
F0.0
sg156
F0.0
sg157
F0.0
sg158
F0.0
sg159
F0.0
sg160
F0.0
sg161
F0.0
sg162
F0.0
sg163
F0.0
sg164
F0.0
sg165
F0.0
sg166
F0.0
sg167
F0.0
sg168
F0.0
stp523
s(S'c8d6fa91d0043473f8f2c7321f556364'
p524
S'2014-06-27'
p525
tp526
(S'none'
p527
(dp528
g6
F0.0
sg7
F0.0
sg8
F0.0
sg9
F0.0
sg10
F0.0
sg11
F0.0
sg12
F2.0
sg13
F0.0
sg14
F0.0
sg15
F0.0
sg16
F0.0
sg17
F1.0
sg18
F0.0
sg19
F0.0
sg20
F0.0
sg21
F0.0
sg22
F0.0
sg23
F0.0
sg24
F0.0
sg25
F0.0
sg26
F0.0
sg27
F0.0
sg28
F0.0
sg29
F0.0
sg30
F0.0
sg31
F0.0
sg32
F0.0
sg33
F0.0
sg34
F0.0
sg35
F1.0
sg36
F0.0
sg37
F0.0
sg38
F0.0
sg39
F0.0
sg40
F0.0
sg41
F0.0
sg42
F0.0
sg43
F0.0
sg44
F0.0
sg45
F0.0
sg46
F0.0
sg47
F0.0
sg48
F1.0
sg49
F0.0
sg50
F0.0
sg51
F0.0
sg52
F0.0
sg53
F0.0
sg54
F0.0
sg55
F0.0
sg56
F0.0
sg57
F0.0
sg58
F0.0
sg59
F0.0
sg60
F0.0
sg61
F0.0
sg62
F0.0
sg63
F0.0
sg64
F0.0
sg65
F0.0
sg66
F0.0
sg67
F2.0
sg68
F0.0
sg69
F0.0
sg70
F0.0
sg71
F0.0
sg72
F0.0
sg73
F0.0
sg74
F0.0
sg75
F0.0
sg76
F0.0
sg77
F0.0
sg78
F0.0
sg79
F0.0
sg80
F0.0
sg81
F0.0
sg82
F0.0
sg83
F0.0
sg84
F0.0
sg85
F0.0
sg86
F0.0
sg87
F0.0
sg88
F0.0
sg89
F0.0
sg90
F0.0
sg91
F0.0
sg92
F0.0
sg93
F0.0
sg94
F0.0
sg95
F0.0
sg96
F0.0
sg97
F0.0
sg98
F0.0
sg99
F0.0
sg100
F0.0
sg101
F0.0
sg102
F0.0
sg103
F0.0
sg104
F0.0
sg105
F0.0
sg106
F0.0
sg107
F0.0
sg108
F0.0
sg109
F0.0
sg110
F0.0
sg111
F0.0
sg112
F0.0
sg113
F0.0
sg114
F0.0
sg115
F0.0
sg116
F0.0
sg117
F0.0
sg118
F0.0
sg119
F0.0
sg120
F0.0
sg121
F0.0
sg122
F0.0
sg123
F0.0
sg124
F0.0
sg125
F0.0
sg126
F0.0
sg127
F0.0
sg128
F0.0
sg129
F0.0
sg130
F1.0
sg131
F0.0
sg132
F0.0
sg133
F0.0
sg134
F0.0
sg135
F0.0
sg136
F0.0
sg137
F0.0
sg138
F0.0
sg139
F0.0
sg140
F0.0
sg141
F0.0
sg142
F0.0
sg143
F0.0
sg144
F0.0
sg145
F0.0
sg146
F0.0
sg147
F0.0
sg148
F0.0
sg149
F0.0
sg150
F0.0
sg151
F0.0
sg152
F0.0
sg153
F0.0
sg154
F0.0
sg155
F0.0
sg156
F0.0
sg157
F0.0
sg158
F0.0
sg159
F0.0
sg160
F0.0
sg161
F0.0
sg162
F0.0
sg163
F0.0
sg164
F0.0
sg165
F0.0
sg166
F0.0
sg167
F0.0
sg168
F0.0
stp529
s(S'8b7bb0b2361e0b1d67421c536b68b0a1'
p530
S'2014-02-04'
p531
tp532
(S'copycat'
p533
(dp534
g6
F0.0
sg7
F0.0
sg8
F0.0
sg9
F0.0
sg10
F0.0
sg11
F0.0
sg12
F102.0
sg13
F0.0
sg14
F0.0
sg15
F0.0
sg16
F0.0
sg17
F102.0
sg18
F0.0
sg19
F0.0
sg20
F0.0
sg21
F0.0
sg22
F0.0
sg23
F0.0
sg24
F0.0
sg25
F0.0
sg26
F102.0
sg27
F0.0
sg28
F0.0
sg29
F0.0
sg30
F0.0
sg31
F0.0
sg32
F0.0
sg33
F0.0
sg34
F0.0
sg35
F0.0
sg36
F0.0
sg37
F0.0
sg38
F0.0
sg39
F0.0
sg40
F8.0
sg41
F0.0
sg42
F0.0
sg43
F0.0
sg44
F0.0
sg45
F0.0
sg46
F0.0
sg47
F0.0
sg48
F0.0
sg49
F0.0
sg50
F0.0
sg51
F0.0
sg52
F0.0
sg53
F0.0
sg54
F0.0
sg55
F0.0
sg56
F0.0
sg57
F0.0
sg58
F0.0
sg59
F0.0
sg60
F0.0
sg61
F3.0
sg62
F0.0
sg63
F0.0
sg64
F0.0
sg65
F0.0
sg66
F0.0
sg67
F0.0
sg68
F0.0
sg69
F0.0
sg70
F0.0
sg71
F0.0
sg72
F0.0
sg73
F0.0
sg74
F0.0
sg75
F0.0
sg76
F0.0
sg77
F0.0
sg78
F0.0
sg79
F0.0
sg80
F0.0
sg81
F0.0
sg82
F0.0
sg83
F0.0
sg84
F0.0
sg85
F0.0
sg86
F0.0
sg87
F0.0
sg88
F0.0
sg89
F0.0
sg90
F17.0
sg91
F0.0
sg92
F0.0
sg93
F0.0
sg94
F0.0
sg95
F0.0
sg96
F0.0
sg97
F0.0
sg98
F0.0
sg99
F0.0
sg100
F0.0
sg101
F0.0
sg102
F0.0
sg103
F0.0
sg104
F0.0
sg105
F0.0
sg106
F0.0
sg107
F0.0
sg108
F0.0
sg109
F0.0
sg110
F0.0
sg111
F0.0
sg112
F0.0
sg113
F0.0
sg114
F0.0
sg115
F0.0
sg116
F0.0
sg117
F0.0
sg118
F0.0
sg119
F0.0
sg120
F0.0
sg121
F0.0
sg122
F0.0
sg123
F0.0
sg124
F0.0
sg125
F0.0
sg126
F0.0
sg127
F0.0
sg128
F0.0
sg129
F0.0
sg130
F0.0
sg131
F0.0
sg132
F0.0
sg133
F0.0
sg134
F0.0
sg135
F0.0
sg136
F0.0
sg137
F0.0
sg138
F0.0
sg139
F0.0
sg140
F0.0
sg141
F0.0
sg142
F0.0
sg143
F0.0
sg144
F0.0
sg145
F0.0
sg146
F0.0
sg147
F0.0
sg148
F0.0
sg149
F0.0
sg150
F0.0
sg151
F0.0
sg152
F0.0
sg153
F0.0
sg154
F0.0
sg155
F0.0
sg156
F0.0
sg157
F0.0
sg158
F0.0
sg159
F0.0
sg160
F0.0
sg161
F0.0
sg162
F0.0
sg163
F0.0
sg164
F0.0
sg165
F0.0
sg166
F0.0
sg167
F0.0
sg168
F0.0
stp535
s(S'47d379d01100cc35f195d201f9278a88'
p536
S'2014-01-20'
p537
tp538
(S'smsreg'
p539
(dp540
g6
F0.0
sg7
F0.0
sg8
F0.0
sg9
F0.0
sg10
F0.0
sg11
F0.0
sg12
F10.0
sg13
F0.0
sg14
F0.0
sg15
F0.0
sg16
F0.0
sg17
F0.0
sg18
F0.0
sg19
F4.0
sg20
F0.0
sg21
F0.0
sg22
F0.0
sg23
F0.0
sg24
F0.0
sg25
F0.0
sg26
F12.0
sg27
F0.0
sg28
F0.0
sg29
F0.0
sg30
F0.0
sg31
F0.0
sg32
F0.0
sg33
F0.0
sg34
F0.0
sg35
F2.0
sg36
F0.0
sg37
F0.0
sg38
F0.0
sg39
F0.0
sg40
F0.0
sg41
F0.0
sg42
F4.0
sg43
F0.0
sg44
F0.0
sg45
F0.0
sg46
F0.0
sg47
F0.0
sg48
F2.0
sg49
F0.0
sg50
F0.0
sg51
F0.0
sg52
F0.0
sg53
F0.0
sg54
F0.0
sg55
F0.0
sg56
F0.0
sg57
F0.0
sg58
F0.0
sg59
F0.0
sg60
F0.0
sg61
F0.0
sg62
F0.0
sg63
F0.0
sg64
F1.0
sg65
F0.0
sg66
F0.0
sg67
F12.0
sg68
F0.0
sg69
F5.0
sg70
F0.0
sg71
F0.0
sg72
F0.0
sg73
F0.0
sg74
F0.0
sg75
F0.0
sg76
F0.0
sg77
F0.0
sg78
F0.0
sg79
F0.0
sg80
F0.0
sg81
F0.0
sg82
F0.0
sg83
F0.0
sg84
F0.0
sg85
F0.0
sg86
F0.0
sg87
F0.0
sg88
F0.0
sg89
F0.0
sg90
F0.0
sg91
F0.0
sg92
F0.0
sg93
F0.0
sg94
F0.0
sg95
F15.0
sg96
F0.0
sg97
F0.0
sg98
F0.0
sg99
F0.0
sg100
F0.0
sg101
F0.0
sg102
F0.0
sg103
F0.0
sg104
F0.0
sg105
F0.0
sg106
F0.0
sg107
F0.0
sg108
F0.0
sg109
F0.0
sg110
F0.0
sg111
F0.0
sg112
F0.0
sg113
F0.0
sg114
F0.0
sg115
F0.0
sg116
F0.0
sg117
F0.0
sg118
F0.0
sg119
F0.0
sg120
F0.0
sg121
F0.0
sg122
F0.0
sg123
F0.0
sg124
F0.0
sg125
F0.0
sg126
F0.0
sg127
F0.0
sg128
F0.0
sg129
F0.0
sg130
F2.0
sg131
F0.0
sg132
F0.0
sg133
F0.0
sg134
F2.0
sg135
F0.0
sg136
F0.0
sg137
F0.0
sg138
F0.0
sg139
F0.0
sg140
F16.0
sg141
F0.0
sg142
F0.0
sg143
F0.0
sg144
F0.0
sg145
F0.0
sg146
F0.0
sg147
F0.0
sg148
F0.0
sg149
F0.0
sg150
F0.0
sg151
F0.0
sg152
F0.0
sg153
F0.0
sg154
F0.0
sg155
F0.0
sg156
F0.0
sg157
F0.0
sg158
F0.0
sg159
F0.0
sg160
F0.0
sg161
F1.0
sg162
F0.0
sg163
F0.0
sg164
F0.0
sg165
F0.0
sg166
F5.0
sg167
F2.0
sg168
F0.0
stp541
s(S'ecf4d04b0661bcbb7542260bc496129b'
p542
S'2014-10-22'
p543
tp544
(S'fakebank'
p545
(dp546
g6
F0.0
sg7
F0.0
sg8
F0.0
sg9
F0.0
sg10
F0.0
sg11
F0.0
sg12
F0.0
sg13
F0.0
sg14
F0.0
sg15
F0.0
sg16
F0.0
sg17
F0.0
sg18
F0.0
sg19
F0.0
sg20
F0.0
sg21
F0.0
sg22
F0.0
sg23
F0.0
sg24
F0.0
sg25
F0.0
sg26
F0.0
sg27
F0.0
sg28
F0.0
sg29
F0.0
sg30
F0.0
sg31
F0.0
sg32
F0.0
sg33
F0.0
sg34
F0.0
sg35
F0.0
sg36
F0.0
sg37
F0.0
sg38
F0.0
sg39
F0.0
sg40
F0.0
sg41
F0.0
sg42
F0.0
sg43
F0.0
sg44
F0.0
sg45
F0.0
sg46
F0.0
sg47
F0.0
sg48
F0.0
sg49
F0.0
sg50
F0.0
sg51
F0.0
sg52
F0.0
sg53
F0.0
sg54
F0.0
sg55
F0.0
sg56
F0.0
sg57
F0.0
sg58
F0.0
sg59
F0.0
sg60
F0.0
sg61
F0.0
sg62
F0.0
sg63
F0.0
sg64
F0.0
sg65
F0.0
sg66
F0.0
sg67
F0.0
sg68
F0.0
sg69
F0.0
sg70
F0.0
sg71
F0.0
sg72
F0.0
sg73
F0.0
sg74
F0.0
sg75
F0.0
sg76
F0.0
sg77
F0.0
sg78
F0.0
sg79
F0.0
sg80
F0.0
sg81
F0.0
sg82
F0.0
sg83
F0.0
sg84
F0.0
sg85
F0.0
sg86
F0.0
sg87
F0.0
sg88
F0.0
sg89
F0.0
sg90
F0.0
sg91
F0.0
sg92
F0.0
sg93
F0.0
sg94
F0.0
sg95
F0.0
sg96
F0.0
sg97
F0.0
sg98
F0.0
sg99
F0.0
sg100
F0.0
sg101
F0.0
sg102
F0.0
sg103
F0.0
sg104
F0.0
sg105
F0.0
sg106
F0.0
sg107
F0.0
sg108
F0.0
sg109
F0.0
sg110
F0.0
sg111
F0.0
sg112
F0.0
sg113
F0.0
sg114
F0.0
sg115
F0.0
sg116
F0.0
sg117
F0.0
sg118
F0.0
sg119
F0.0
sg120
F0.0
sg121
F0.0
sg122
F0.0
sg123
F0.0
sg124
F0.0
sg125
F0.0
sg126
F0.0
sg127
F0.0
sg128
F0.0
sg129
F0.0
sg130
F0.0
sg131
F0.0
sg132
F0.0
sg133
F0.0
sg134
F0.0
sg135
F0.0
sg136
F0.0
sg137
F0.0
sg138
F0.0
sg139
F0.0
sg140
F0.0
sg141
F0.0
sg142
F0.0
sg143
F0.0
sg144
F0.0
sg145
F0.0
sg146
F0.0
sg147
F0.0
sg148
F2.0
sg149
F0.0
sg150
F0.0
sg151
F0.0
sg152
F0.0
sg153
F0.0
sg154
F0.0
sg155
F0.0
sg156
F0.0
sg157
F0.0
sg158
F0.0
sg159
F0.0
sg160
F0.0
sg161
F0.0
sg162
F0.0
sg163
F0.0
sg164
F0.0
sg165
F0.0
sg166
F0.0
sg167
F3.0
sg168
F0.0
stp547
s(S'87cedd237811b9965dab1deaeb79c640'
p548
S'2014-01-27'
p549
tp550
(S'copycat'
p551
(dp552
g6
F0.0
sg7
F0.0
sg8
F0.0
sg9
F0.0
sg10
F0.0
sg11
F0.0
sg12
F6.0
sg13
F0.0
sg14
F13.0
sg15
F0.0
sg16
F0.0
sg17
F3.0
sg18
F0.0
sg19
F0.0
sg20
F0.0
sg21
F0.0
sg22
F0.0
sg23
F0.0
sg24
F0.0
sg25
F0.0
sg26
F0.0
sg27
F0.0
sg28
F0.0
sg29
F0.0
sg30
F0.0
sg31
F0.0
sg32
F8.0
sg33
F1.0
sg34
F0.0
sg35
F4.0
sg36
F0.0
sg37
F0.0
sg38
F0.0
sg39
F0.0
sg40
F0.0
sg41
F0.0
sg42
F0.0
sg43
F15.0
sg44
F0.0
sg45
F0.0
sg46
F0.0
sg47
F0.0
sg48
F4.0
sg49
F0.0
sg50
F0.0
sg51
F0.0
sg52
F0.0
sg53
F0.0
sg54
F0.0
sg55
F0.0
sg56
F0.0
sg57
F0.0
sg58
F0.0
sg59
F0.0
sg60
F0.0
sg61
F0.0
sg62
F0.0
sg63
F0.0
sg64
F0.0
sg65
F0.0
sg66
F0.0
sg67
F16.0
sg68
F0.0
sg69
F0.0
sg70
F0.0
sg71
F0.0
sg72
F0.0
sg73
F0.0
sg74
F0.0
sg75
F0.0
sg76
F0.0
sg77
F0.0
sg78
F0.0
sg79
F0.0
sg80
F0.0
sg81
F0.0
sg82
F0.0
sg83
F6.0
sg84
F0.0
sg85
F0.0
sg86
F0.0
sg87
F0.0
sg88
F0.0
sg89
F0.0
sg90
F0.0
sg91
F0.0
sg92
F0.0
sg93
F0.0
sg94
F0.0
sg95
F3.0
sg96
F2.0
sg97
F0.0
sg98
F0.0
sg99
F0.0
sg100
F0.0
sg101
F0.0
sg102
F0.0
sg103
F0.0
sg104
F0.0
sg105
F0.0
sg106
F0.0
sg107
F0.0
sg108
F0.0
sg109
F0.0
sg110
F0.0
sg111
F0.0
sg112
F0.0
sg113
F0.0
sg114
F0.0
sg115
F0.0
sg116
F0.0
sg117
F0.0
sg118
F0.0
sg119
F0.0
sg120
F0.0
sg121
F0.0
sg122
F1.0
sg123
F0.0
sg124
F0.0
sg125
F0.0
sg126
F0.0
sg127
F0.0
sg128
F0.0
sg129
F0.0
sg130
F4.0
sg131
F0.0
sg132
F0.0
sg133
F0.0
sg134
F2.0
sg135
F0.0
sg136
F0.0
sg137
F0.0
sg138
F0.0
sg139
F0.0
sg140
F0.0
sg141
F0.0
sg142
F0.0
sg143
F0.0
sg144
F0.0
sg145
F0.0
sg146
F0.0
sg147
F0.0
sg148
F0.0
sg149
F0.0
sg150
F0.0
sg151
F0.0
sg152
F0.0
sg153
F0.0
sg154
F4.0
sg155
F0.0
sg156
F0.0
sg157
F0.0
sg158
F0.0
sg159
F0.0
sg160
F0.0
sg161
F0.0
sg162
F0.0
sg163
F0.0
sg164
F0.0
sg165
F0.0
sg166
F1.0
sg167
F2.0
sg168
F0.0
stp553
s(S'fbfaa85aebcf4ade2a5602394ce4cf4c'
p554
S'2014-02-13'
p555
tp556
(S'copycat'
p557
(dp558
g6
F0.0
sg7
F0.0
sg8
F0.0
sg9
F0.0
sg10
F0.0
sg11
F0.0
sg12
F0.0
sg13
F0.0
sg14
F0.0
sg15
F0.0
sg16
F0.0
sg17
F0.0
sg18
F0.0
sg19
F0.0
sg20
F0.0
sg21
F0.0
sg22
F0.0
sg23
F0.0
sg24
F0.0
sg25
F0.0
sg26
F0.0
sg27
F0.0
sg28
F0.0
sg29
F0.0
sg30
F0.0
sg31
F0.0
sg32
F0.0
sg33
F0.0
sg34
F0.0
sg35
F0.0
sg36
F0.0
sg37
F0.0
sg38
F0.0
sg39
F0.0
sg40
F0.0
sg41
F0.0
sg42
F0.0
sg43
F0.0
sg44
F0.0
sg45
F0.0
sg46
F0.0
sg47
F0.0
sg48
F0.0
sg49
F0.0
sg50
F0.0
sg51
F0.0
sg52
F0.0
sg53
F0.0
sg54
F0.0
sg55
F0.0
sg56
F0.0
sg57
F0.0
sg58
F0.0
sg59
F0.0
sg60
F0.0
sg61
F0.0
sg62
F0.0
sg63
F0.0
sg64
F0.0
sg65
F0.0
sg66
F0.0
sg67
F0.0
sg68
F0.0
sg69
F0.0
sg70
F0.0
sg71
F0.0
sg72
F0.0
sg73
F0.0
sg74
F0.0
sg75
F0.0
sg76
F0.0
sg77
F0.0
sg78
F0.0
sg79
F0.0
sg80
F0.0
sg81
F0.0
sg82
F0.0
sg83
F0.0
sg84
F0.0
sg85
F0.0
sg86
F0.0
sg87
F0.0
sg88
F0.0
sg89
F0.0
sg90
F0.0
sg91
F0.0
sg92
F0.0
sg93
F0.0
sg94
F0.0
sg95
F102.0
sg96
F0.0
sg97
F0.0
sg98
F0.0
sg99
F0.0
sg100
F0.0
sg101
F0.0
sg102
F0.0
sg103
F0.0
sg104
F0.0
sg105
F0.0
sg106
F0.0
sg107
F0.0
sg108
F0.0
sg109
F0.0
sg110
F0.0
sg111
F0.0
sg112
F0.0
sg113
F0.0
sg114
F0.0
sg115
F0.0
sg116
F0.0
sg117
F0.0
sg118
F0.0
sg119
F0.0
sg120
F0.0
sg121
F0.0
sg122
F0.0
sg123
F0.0
sg124
F0.0
sg125
F0.0
sg126
F0.0
sg127
F0.0
sg128
F0.0
sg129
F0.0
sg130
F0.0
sg131
F0.0
sg132
F0.0
sg133
F0.0
sg134
F0.0
sg135
F0.0
sg136
F0.0
sg137
F0.0
sg138
F0.0
sg139
F0.0
sg140
F0.0
sg141
F0.0
sg142
F0.0
sg143
F0.0
sg144
F0.0
sg145
F0.0
sg146
F0.0
sg147
F0.0
sg148
F0.0
sg149
F0.0
sg150
F0.0
sg151
F0.0
sg152
F0.0
sg153
F0.0
sg154
F0.0
sg155
F0.0
sg156
F0.0
sg157
F0.0
sg158
F0.0
sg159
F0.0
sg160
F0.0
sg161
F0.0
sg162
F0.0
sg163
F0.0
sg164
F0.0
sg165
F0.0
sg166
F0.0
sg167
F0.0
sg168
F0.0
stp559
s(S'a794820bd316e7cb3f5817ad6c8891ae'
p560
S'2014-02-18'
p561
tp562
(S'copycat'
p563
(dp564
g6
F0.0
sg7
F0.0
sg8
F0.0
sg9
F0.0
sg10
F0.0
sg11
F0.0
sg12
F0.0
sg13
F0.0
sg14
F0.0
sg15
F0.0
sg16
F0.0
sg17
F0.0
sg18
F0.0
sg19
F0.0
sg20
F0.0
sg21
F0.0
sg22
F0.0
sg23
F0.0
sg24
F0.0
sg25
F0.0
sg26
F0.0
sg27
F0.0
sg28
F0.0
sg29
F0.0
sg30
F0.0
sg31
F0.0
sg32
F4.0
sg33
F0.0
sg34
F0.0
sg35
F0.0
sg36
F0.0
sg37
F0.0
sg38
F0.0
sg39
F0.0
sg40
F0.0
sg41
F0.0
sg42
F132.0
sg43
F0.0
sg44
F0.0
sg45
F0.0
sg46
F0.0
sg47
F0.0
sg48
F0.0
sg49
F0.0
sg50
F0.0
sg51
F0.0
sg52
F0.0
sg53
F0.0
sg54
F0.0
sg55
F0.0
sg56
F0.0
sg57
F0.0
sg58
F0.0
sg59
F0.0
sg60
F0.0
sg61
F0.0
sg62
F0.0
sg63
F0.0
sg64
F0.0
sg65
F0.0
sg66
F0.0
sg67
F454.0
sg68
F0.0
sg69
F0.0
sg70
F0.0
sg71
F0.0
sg72
F0.0
sg73
F0.0
sg74
F0.0
sg75
F0.0
sg76
F0.0
sg77
F0.0
sg78
F0.0
sg79
F0.0
sg80
F0.0
sg81
F0.0
sg82
F0.0
sg83
F0.0
sg84
F0.0
sg85
F0.0
sg86
F0.0
sg87
F0.0
sg88
F0.0
sg89
F0.0
sg90
F0.0
sg91
F0.0
sg92
F0.0
sg93
F0.0
sg94
F0.0
sg95
F66.0
sg96
F0.0
sg97
F0.0
sg98
F0.0
sg99
F0.0
sg100
F0.0
sg101
F0.0
sg102
F0.0
sg103
F0.0
sg104
F0.0
sg105
F0.0
sg106
F0.0
sg107
F0.0
sg108
F0.0
sg109
F0.0
sg110
F0.0
sg111
F0.0
sg112
F0.0
sg113
F0.0
sg114
F0.0
sg115
F0.0
sg116
F0.0
sg117
F0.0
sg118
F0.0
sg119
F0.0
sg120
F0.0
sg121
F0.0
sg122
F0.0
sg123
F0.0
sg124
F0.0
sg125
F0.0
sg126
F0.0
sg127
F0.0
sg128
F0.0
sg129
F0.0
sg130
F0.0
sg131
F0.0
sg132
F0.0
sg133
F0.0
sg134
F0.0
sg135
F0.0
sg136
F0.0
sg137
F0.0
sg138
F0.0
sg139
F0.0
sg140
F0.0
sg141
F0.0
sg142
F0.0
sg143
F0.0
sg144
F0.0
sg145
F0.0
sg146
F0.0
sg147
F0.0
sg148
F0.0
sg149
F0.0
sg150
F0.0
sg151
F0.0
sg152
F0.0
sg153
F0.0
sg154
F0.0
sg155
F0.0
sg156
F0.0
sg157
F0.0
sg158
F0.0
sg159
F0.0
sg160
F0.0
sg161
F0.0
sg162
F0.0
sg163
F0.0
sg164
F0.0
sg165
F0.0
sg166
F0.0
sg167
F0.0
sg168
F0.0
stp565
s(S'3047d9198278f2c1c58176e892684a0e'
p566
S'2014-02-03'
p567
tp568
(S'generic'
p569
(dp570
g6
F0.0
sg7
F0.0
sg8
F0.0
sg9
F0.0
sg10
F0.0
sg11
F0.0
sg12
F19.0
sg13
F0.0
sg14
F0.0
sg15
F0.0
sg16
F0.0
sg17
F0.0
sg18
F0.0
sg19
F0.0
sg20
F0.0
sg21
F0.0
sg22
F0.0
sg23
F0.0
sg24
F0.0
sg25
F0.0
sg26
F0.0
sg27
F0.0
sg28
F0.0
sg29
F0.0
sg30
F0.0
sg31
F0.0
sg32
F0.0
sg33
F0.0
sg34
F0.0
sg35
F0.0
sg36
F0.0
sg37
F0.0
sg38
F0.0
sg39
F0.0
sg40
F0.0
sg41
F0.0
sg42
F0.0
sg43
F0.0
sg44
F0.0
sg45
F0.0
sg46
F0.0
sg47
F0.0
sg48
F0.0
sg49
F0.0
sg50
F0.0
sg51
F0.0
sg52
F0.0
sg53
F0.0
sg54
F0.0
sg55
F0.0
sg56
F0.0
sg57
F0.0
sg58
F0.0
sg59
F0.0
sg60
F0.0
sg61
F0.0
sg62
F0.0
sg63
F0.0
sg64
F83.0
sg65
F0.0
sg66
F0.0
sg67
F18.0
sg68
F0.0
sg69
F0.0
sg70
F0.0
sg71
F0.0
sg72
F0.0
sg73
F0.0
sg74
F0.0
sg75
F0.0
sg76
F0.0
sg77
F0.0
sg78
F0.0
sg79
F0.0
sg80
F0.0
sg81
F0.0
sg82
F0.0
sg83
F0.0
sg84
F0.0
sg85
F0.0
sg86
F0.0
sg87
F0.0
sg88
F0.0
sg89
F0.0
sg90
F0.0
sg91
F0.0
sg92
F0.0
sg93
F0.0
sg94
F0.0
sg95
F0.0
sg96
F0.0
sg97
F0.0
sg98
F0.0
sg99
F0.0
sg100
F0.0
sg101
F0.0
sg102
F0.0
sg103
F0.0
sg104
F0.0
sg105
F0.0
sg106
F0.0
sg107
F0.0
sg108
F0.0
sg109
F0.0
sg110
F0.0
sg111
F0.0
sg112
F0.0
sg113
F0.0
sg114
F0.0
sg115
F0.0
sg116
F0.0
sg117
F0.0
sg118
F0.0
sg119
F0.0
sg120
F0.0
sg121
F0.0
sg122
F0.0
sg123
F0.0
sg124
F0.0
sg125
F0.0
sg126
F0.0
sg127
F0.0
sg128
F0.0
sg129
F0.0
sg130
F0.0
sg131
F0.0
sg132
F0.0
sg133
F0.0
sg134
F0.0
sg135
F0.0
sg136
F0.0
sg137
F0.0
sg138
F0.0
sg139
F0.0
sg140
F0.0
sg141
F0.0
sg142
F0.0
sg143
F0.0
sg144
F0.0
sg145
F0.0
sg146
F0.0
sg147
F0.0
sg148
F0.0
sg149
F0.0
sg150
F0.0
sg151
F0.0
sg152
F0.0
sg153
F0.0
sg154
F0.0
sg155
F0.0
sg156
F0.0
sg157
F0.0
sg158
F0.0
sg159
F0.0
sg160
F0.0
sg161
F83.0
sg162
F0.0
sg163
F0.0
sg164
F0.0
sg165
F0.0
sg166
F0.0
sg167
F0.0
sg168
F0.0
stp571
s(S'b68de048e9dad202a317537b0c0ecd65'
p572
S'2014-11-05'
p573
tp574
(S'smsreg'
p575
(dp576
g6
F0.0
sg7
F0.0
sg8
F0.0
sg9
F0.0
sg10
F0.0
sg11
F24.0
sg12
F0.0
sg13
F0.0
sg14
F0.0
sg15
F0.0
sg16
F0.0
sg17
F0.0
sg18
F0.0
sg19
F0.0
sg20
F0.0
sg21
F0.0
sg22
F0.0
sg23
F0.0
sg24
F0.0
sg25
F0.0
sg26
F0.0
sg27
F0.0
sg28
F0.0
sg29
F0.0
sg30
F0.0
sg31
F0.0
sg32
F2624.0
sg33
F0.0
sg34
F0.0
sg35
F6.0
sg36
F0.0
sg37
F0.0
sg38
F0.0
sg39
F0.0
sg40
F0.0
sg41
F0.0
sg42
F0.0
sg43
F0.0
sg44
F0.0
sg45
F0.0
sg46
F0.0
sg47
F0.0
sg48
F2.0
sg49
F0.0
sg50
F0.0
sg51
F0.0
sg52
F0.0
sg53
F0.0
sg54
F0.0
sg55
F0.0
sg56
F0.0
sg57
F0.0
sg58
F0.0
sg59
F28.0
sg60
F0.0
sg61
F0.0
sg62
F0.0
sg63
F0.0
sg64
F11.0
sg65
F0.0
sg66
F7.0
sg67
F0.0
sg68
F0.0
sg69
F0.0
sg70
F0.0
sg71
F0.0
sg72
F4.0
sg73
F0.0
sg74
F0.0
sg75
F0.0
sg76
F0.0
sg77
F0.0
sg78
F0.0
sg79
F0.0
sg80
F0.0
sg81
F0.0
sg82
F0.0
sg83
F0.0
sg84
F0.0
sg85
F0.0
sg86
F0.0
sg87
F0.0
sg88
F0.0
sg89
F0.0
sg90
F0.0
sg91
F0.0
sg92
F0.0
sg93
F0.0
sg94
F0.0
sg95
F8.0
sg96
F0.0
sg97
F0.0
sg98
F0.0
sg99
F0.0
sg100
F0.0
sg101
F0.0
sg102
F0.0
sg103
F0.0
sg104
F0.0
sg105
F0.0
sg106
F0.0
sg107
F0.0
sg108
F0.0
sg109
F0.0
sg110
F0.0
sg111
F0.0
sg112
F0.0
sg113
F0.0
sg114
F0.0
sg115
F0.0
sg116
F0.0
sg117
F0.0
sg118
F0.0
sg119
F0.0
sg120
F0.0
sg121
F0.0
sg122
F0.0
sg123
F0.0
sg124
F0.0
sg125
F0.0
sg126
F0.0
sg127
F0.0
sg128
F0.0
sg129
F0.0
sg130
F8.0
sg131
F0.0
sg132
F0.0
sg133
F0.0
sg134
F0.0
sg135
F0.0
sg136
F0.0
sg137
F0.0
sg138
F0.0
sg139
F0.0
sg140
F0.0
sg141
F0.0
sg142
F0.0
sg143
F0.0
sg144
F0.0
sg145
F0.0
sg146
F0.0
sg147
F0.0
sg148
F0.0
sg149
F0.0
sg150
F0.0
sg151
F0.0
sg152
F0.0
sg153
F0.0
sg154
F4.0
sg155
F0.0
sg156
F0.0
sg157
F0.0
sg158
F0.0
sg159
F0.0
sg160
F0.0
sg161
F11.0
sg162
F0.0
sg163
F0.0
sg164
F0.0
sg165
F0.0
sg166
F0.0
sg167
F0.0
sg168
F0.0
stp577
s(S'badc4c38d26fe3b01fe8ff9a9557ec08'
p578
S'2014-03-19'
p579
tp580
(S'UNKNOWN'
p581
(dp582
g6
F0.0
sg7
F0.0
sg8
F0.0
sg9
F0.0
sg10
F0.0
sg11
F0.0
sg12
F0.0
sg13
F0.0
sg14
F0.0
sg15
F0.0
sg16
F0.0
sg17
F0.0
sg18
F0.0
sg19
F0.0
sg20
F0.0
sg21
F0.0
sg22
F0.0
sg23
F0.0
sg24
F0.0
sg25
F0.0
sg26
F0.0
sg27
F0.0
sg28
F0.0
sg29
F0.0
sg30
F0.0
sg31
F0.0
sg32
F0.0
sg33
F0.0
sg34
F0.0
sg35
F0.0
sg36
F0.0
sg37
F0.0
sg38
F0.0
sg39
F0.0
sg40
F0.0
sg41
F0.0
sg42
F0.0
sg43
F0.0
sg44
F0.0
sg45
F0.0
sg46
F0.0
sg47
F0.0
sg48
F0.0
sg49
F0.0
sg50
F0.0
sg51
F0.0
sg52
F0.0
sg53
F0.0
sg54
F0.0
sg55
F0.0
sg56
F0.0
sg57
F0.0
sg58
F0.0
sg59
F0.0
sg60
F0.0
sg61
F0.0
sg62
F0.0
sg63
F0.0
sg64
F0.0
sg65
F0.0
sg66
F0.0
sg67
F0.0
sg68
F0.0
sg69
F0.0
sg70
F0.0
sg71
F0.0
sg72
F0.0
sg73
F0.0
sg74
F0.0
sg75
F0.0
sg76
F0.0
sg77
F0.0
sg78
F0.0
sg79
F0.0
sg80
F0.0
sg81
F0.0
sg82
F0.0
sg83
F0.0
sg84
F0.0
sg85
F0.0
sg86
F0.0
sg87
F0.0
sg88
F0.0
sg89
F0.0
sg90
F0.0
sg91
F0.0
sg92
F0.0
sg93
F0.0
sg94
F0.0
sg95
F0.0
sg96
F0.0
sg97
F0.0
sg98
F0.0
sg99
F0.0
sg100
F0.0
sg101
F0.0
sg102
F0.0
sg103
F0.0
sg104
F0.0
sg105
F0.0
sg106
F0.0
sg107
F0.0
sg108
F0.0
sg109
F0.0
sg110
F0.0
sg111
F0.0
sg112
F0.0
sg113
F0.0
sg114
F0.0
sg115
F0.0
sg116
F0.0
sg117
F0.0
sg118
F0.0
sg119
F0.0
sg120
F0.0
sg121
F0.0
sg122
F0.0
sg123
F0.0
sg124
F0.0
sg125
F0.0
sg126
F0.0
sg127
F0.0
sg128
F0.0
sg129
F0.0
sg130
F0.0
sg131
F0.0
sg132
F0.0
sg133
F0.0
sg134
F0.0
sg135
F0.0
sg136
F0.0
sg137
F0.0
sg138
F0.0
sg139
F0.0
sg140
F0.0
sg141
F0.0
sg142
F0.0
sg143
F0.0
sg144
F0.0
sg145
F0.0
sg146
F0.0
sg147
F0.0
sg148
F0.0
sg149
F0.0
sg150
F0.0
sg151
F0.0
sg152
F0.0
sg153
F0.0
sg154
F0.0
sg155
F0.0
sg156
F0.0
sg157
F0.0
sg158
F0.0
sg159
F0.0
sg160
F0.0
sg161
F0.0
sg162
F0.0
sg163
F0.0
sg164
F0.0
sg165
F0.0
sg166
F0.0
sg167
F0.0
sg168
F0.0
stp583
s(S'85d109c34ca737ab488d8af0339a2e40'
p584
S'2014-02-15'
p585
tp586
(S'trojan.js.iframe.avt'
p587
(dp588
g6
F0.0
sg7
F0.0
sg8
F0.0
sg9
F0.0
sg10
F0.0
sg11
F0.0
sg12
F2.0
sg13
F0.0
sg14
F0.0
sg15
F0.0
sg16
F0.0
sg17
F1.0
sg18
F0.0
sg19
F0.0
sg20
F0.0
sg21
F0.0
sg22
F0.0
sg23
F0.0
sg24
F0.0
sg25
F0.0
sg26
F0.0
sg27
F0.0
sg28
F0.0
sg29
F0.0
sg30
F0.0
sg31
F0.0
sg32
F0.0
sg33
F2.0
sg34
F0.0
sg35
F8.0
sg36
F0.0
sg37
F0.0
sg38
F0.0
sg39
F0.0
sg40
F0.0
sg41
F0.0
sg42
F0.0
sg43
F0.0
sg44
F0.0
sg45
F0.0
sg46
F0.0
sg47
F0.0
sg48
F5.0
sg49
F0.0
sg50
F0.0
sg51
F0.0
sg52
F0.0
sg53
F0.0
sg54
F0.0
sg55
F0.0
sg56
F0.0
sg57
F0.0
sg58
F0.0
sg59
F0.0
sg60
F0.0
sg61
F0.0
sg62
F0.0
sg63
F0.0
sg64
F0.0
sg65
F0.0
sg66
F0.0
sg67
F0.0
sg68
F0.0
sg69
F0.0
sg70
F0.0
sg71
F0.0
sg72
F0.0
sg73
F0.0
sg74
F0.0
sg75
F0.0
sg76
F0.0
sg77
F0.0
sg78
F0.0
sg79
F0.0
sg80
F0.0
sg81
F0.0
sg82
F0.0
sg83
F0.0
sg84
F0.0
sg85
F0.0
sg86
F0.0
sg87
F0.0
sg88
F0.0
sg89
F0.0
sg90
F0.0
sg91
F0.0
sg92
F0.0
sg93
F0.0
sg94
F0.0
sg95
F2.0
sg96
F0.0
sg97
F0.0
sg98
F0.0
sg99
F0.0
sg100
F0.0
sg101
F0.0
sg102
F0.0
sg103
F0.0
sg104
F0.0
sg105
F0.0
sg106
F0.0
sg107
F0.0
sg108
F0.0
sg109
F0.0
sg110
F0.0
sg111
F0.0
sg112
F0.0
sg113
F0.0
sg114
F0.0
sg115
F0.0
sg116
F0.0
sg117
F0.0
sg118
F0.0
sg119
F0.0
sg120
F0.0
sg121
F0.0
sg122
F0.0
sg123
F1.0
sg124
F0.0
sg125
F0.0
sg126
F0.0
sg127
F0.0
sg128
F0.0
sg129
F0.0
sg130
F8.0
sg131
F0.0
sg132
F0.0
sg133
F0.0
sg134
F0.0
sg135
F0.0
sg136
F0.0
sg137
F0.0
sg138
F0.0
sg139
F0.0
sg140
F0.0
sg141
F0.0
sg142
F0.0
sg143
F0.0
sg144
F0.0
sg145
F0.0
sg146
F0.0
sg147
F0.0
sg148
F1.0
sg149
F0.0
sg150
F0.0
sg151
F0.0
sg152
F0.0
sg153
F0.0
sg154
F0.0
sg155
F0.0
sg156
F0.0
sg157
F0.0
sg158
F0.0
sg159
F0.0
sg160
F0.0
sg161
F0.0
sg162
F0.0
sg163
F0.0
sg164
F0.0
sg165
F0.0
sg166
F2.0
sg167
F0.0
sg168
F0.0
stp589
s(S'62054f9a7128822e6def333840efffc2'
p590
S'2014-08-15'
p591
tp592
(S'generic'
p593
(dp594
g6
F0.0
sg7
F0.0
sg8
F0.0
sg9
F0.0
sg10
F0.0
sg11
F95.0
sg12
F25.0
sg13
F0.0
sg14
F0.0
sg15
F0.0
sg16
F0.0
sg17
F0.0
sg18
F0.0
sg19
F0.0
sg20
F0.0
sg21
F0.0
sg22
F0.0
sg23
F0.0
sg24
F0.0
sg25
F0.0
sg26
F0.0
sg27
F0.0
sg28
F0.0
sg29
F0.0
sg30
F0.0
sg31
F0.0
sg32
F0.0
sg33
F0.0
sg34
F0.0
sg35
F0.0
sg36
F0.0
sg37
F0.0
sg38
F0.0
sg39
F0.0
sg40
F0.0
sg41
F95.0
sg42
F0.0
sg43
F5040.0
sg44
F0.0
sg45
F0.0
sg46
F0.0
sg47
F0.0
sg48
F0.0
sg49
F0.0
sg50
F0.0
sg51
F0.0
sg52
F0.0
sg53
F0.0
sg54
F0.0
sg55
F0.0
sg56
F0.0
sg57
F0.0
sg58
F0.0
sg59
F95.0
sg60
F0.0
sg61
F0.0
sg62
F0.0
sg63
F0.0
sg64
F10.0
sg65
F0.0
sg66
F0.0
sg67
F41.0
sg68
F0.0
sg69
F0.0
sg70
F0.0
sg71
F0.0
sg72
F95.0
sg73
F0.0
sg74
F0.0
sg75
F0.0
sg76
F0.0
sg77
F0.0
sg78
F0.0
sg79
F0.0
sg80
F0.0
sg81
F0.0
sg82
F0.0
sg83
F0.0
sg84
F0.0
sg85
F0.0
sg86
F0.0
sg87
F0.0
sg88
F0.0
sg89
F0.0
sg90
F0.0
sg91
F0.0
sg92
F0.0
sg93
F0.0
sg94
F0.0
sg95
F4.0
sg96
F0.0
sg97
F0.0
sg98
F0.0
sg99
F0.0
sg100
F0.0
sg101
F0.0
sg102
F0.0
sg103
F0.0
sg104
F0.0
sg105
F0.0
sg106
F0.0
sg107
F0.0
sg108
F0.0
sg109
F0.0
sg110
F0.0
sg111
F0.0
sg112
F0.0
sg113
F0.0
sg114
F0.0
sg115
F0.0
sg116
F0.0
sg117
F0.0
sg118
F0.0
sg119
F0.0
sg120
F0.0
sg121
F0.0
sg122
F0.0
sg123
F0.0
sg124
F0.0
sg125
F0.0
sg126
F0.0
sg127
F0.0
sg128
F0.0
sg129
F0.0
sg130
F0.0
sg131
F0.0
sg132
F0.0
sg133
F0.0
sg134
F27.0
sg135
F0.0
sg136
F0.0
sg137
F0.0
sg138
F0.0
sg139
F0.0
sg140
F0.0
sg141
F0.0
sg142
F0.0
sg143
F0.0
sg144
F0.0
sg145
F0.0
sg146
F0.0
sg147
F0.0
sg148
F0.0
sg149
F0.0
sg150
F0.0
sg151
F0.0
sg152
F0.0
sg153
F0.0
sg154
F0.0
sg155
F0.0
sg156
F0.0
sg157
F0.0
sg158
F0.0
sg159
F0.0
sg160
F0.0
sg161
F11.0
sg162
F0.0
sg163
F0.0
sg164
F0.0
sg165
F0.0
sg166
F0.0
sg167
F27.0
sg168
F20.0
stp595
s(S'1978c3f7f8cc3acdcb6930245a9998c8'
p596
S'2014-03-16'
p597
tp598
(S'copycat'
p599
(dp600
g6
F0.0
sg7
F0.0
sg8
F0.0
sg9
F0.0
sg10
F0.0
sg11
F0.0
sg12
F32.0
sg13
F0.0
sg14
F0.0
sg15
F0.0
sg16
F0.0
sg17
F31.0
sg18
F0.0
sg19
F0.0
sg20
F0.0
sg21
F0.0
sg22
F0.0
sg23
F0.0
sg24
F0.0
sg25
F0.0
sg26
F0.0
sg27
F0.0
sg28
F0.0
sg29
F0.0
sg30
F0.0
sg31
F0.0
sg32
F82.0
sg33
F1.0
sg34
F0.0
sg35
F1.0
sg36
F0.0
sg37
F0.0
sg38
F0.0
sg39
F0.0
sg40
F0.0
sg41
F0.0
sg42
F0.0
sg43
F1902.0
sg44
F0.0
sg45
F0.0
sg46
F0.0
sg47
F0.0
sg48
F0.0
sg49
F0.0
sg50
F0.0
sg51
F0.0
sg52
F0.0
sg53
F0.0
sg54
F0.0
sg55
F0.0
sg56
F0.0
sg57
F0.0
sg58
F0.0
sg59
F0.0
sg60
F0.0
sg61
F0.0
sg62
F0.0
sg63
F0.0
sg64
F0.0
sg65
F0.0
sg66
F0.0
sg67
F51.0
sg68
F0.0
sg69
F0.0
sg70
F0.0
sg71
F0.0
sg72
F0.0
sg73
F0.0
sg74
F0.0
sg75
F0.0
sg76
F0.0
sg77
F0.0
sg78
F0.0
sg79
F0.0
sg80
F0.0
sg81
F0.0
sg82
F0.0
sg83
F0.0
sg84
F0.0
sg85
F0.0
sg86
F0.0
sg87
F0.0
sg88
F0.0
sg89
F0.0
sg90
F0.0
sg91
F0.0
sg92
F0.0
sg93
F0.0
sg94
F0.0
sg95
F93.0
sg96
F0.0
sg97
F0.0
sg98
F0.0
sg99
F0.0
sg100
F0.0
sg101
F0.0
sg102
F0.0
sg103
F0.0
sg104
F0.0
sg105
F0.0
sg106
F0.0
sg107
F0.0
sg108
F0.0
sg109
F0.0
sg110
F0.0
sg111
F0.0
sg112
F0.0
sg113
F124.0
sg114
F0.0
sg115
F0.0
sg116
F0.0
sg117
F0.0
sg118
F0.0
sg119
F0.0
sg120
F0.0
sg121
F0.0
sg122
F0.0
sg123
F0.0
sg124
F0.0
sg125
F31.0
sg126
F0.0
sg127
F0.0
sg128
F0.0
sg129
F0.0
sg130
F1.0
sg131
F0.0
sg132
F0.0
sg133
F0.0
sg134
F0.0
sg135
F0.0
sg136
F0.0
sg137
F0.0
sg138
F0.0
sg139
F0.0
sg140
F124.0
sg141
F0.0
sg142
F0.0
sg143
F0.0
sg144
F0.0
sg145
F0.0
sg146
F0.0
sg147
F0.0
sg148
F0.0
sg149
F0.0
sg150
F0.0
sg151
F0.0
sg152
F0.0
sg153
F0.0
sg154
F48.0
sg155
F0.0
sg156
F0.0
sg157
F0.0
sg158
F0.0
sg159
F0.0
sg160
F0.0
sg161
F0.0
sg162
F0.0
sg163
F0.0
sg164
F0.0
sg165
F0.0
sg166
F0.0
sg167
F0.0
sg168
F0.0
stp601
s(S'4c116f05a7409d8b623699f629462fd6'
p602
S'2014-02-26'
p603
tp604
(S'smssend'
p605
(dp606
g6
F0.0
sg7
F0.0
sg8
F0.0
sg9
F0.0
sg10
F0.0
sg11
F0.0
sg12
F0.0
sg13
F0.0
sg14
F0.0
sg15
F0.0
sg16
F0.0
sg17
F0.0
sg18
F0.0
sg19
F0.0
sg20
F0.0
sg21
F0.0
sg22
F0.0
sg23
F0.0
sg24
F0.0
sg25
F0.0
sg26
F0.0
sg27
F0.0
sg28
F0.0
sg29
F0.0
sg30
F0.0
sg31
F0.0
sg32
F0.0
sg33
F0.0
sg34
F0.0
sg35
F0.0
sg36
F0.0
sg37
F0.0
sg38
F0.0
sg39
F0.0
sg40
F0.0
sg41
F0.0
sg42
F0.0
sg43
F16.0
sg44
F0.0
sg45
F0.0
sg46
F0.0
sg47
F0.0
sg48
F0.0
sg49
F0.0
sg50
F0.0
sg51
F0.0
sg52
F0.0
sg53
F0.0
sg54
F0.0
sg55
F0.0
sg56
F0.0
sg57
F0.0
sg58
F0.0
sg59
F0.0
sg60
F0.0
sg61
F0.0
sg62
F0.0
sg63
F0.0
sg64
F0.0
sg65
F0.0
sg66
F0.0
sg67
F8.0
sg68
F0.0
sg69
F0.0
sg70
F0.0
sg71
F0.0
sg72
F0.0
sg73
F0.0
sg74
F0.0
sg75
F0.0
sg76
F0.0
sg77
F0.0
sg78
F0.0
sg79
F0.0
sg80
F0.0
sg81
F0.0
sg82
F0.0
sg83
F0.0
sg84
F0.0
sg85
F0.0
sg86
F0.0
sg87
F0.0
sg88
F0.0
sg89
F0.0
sg90
F0.0
sg91
F0.0
sg92
F0.0
sg93
F0.0
sg94
F0.0
sg95
F0.0
sg96
F0.0
sg97
F0.0
sg98
F0.0
sg99
F0.0
sg100
F0.0
sg101
F0.0
sg102
F0.0
sg103
F0.0
sg104
F0.0
sg105
F0.0
sg106
F0.0
sg107
F0.0
sg108
F0.0
sg109
F0.0
sg110
F0.0
sg111
F0.0
sg112
F0.0
sg113
F0.0
sg114
F0.0
sg115
F0.0
sg116
F0.0
sg117
F0.0
sg118
F0.0
sg119
F0.0
sg120
F0.0
sg121
F0.0
sg122
F0.0
sg123
F0.0
sg124
F0.0
sg125
F0.0
sg126
F0.0
sg127
F0.0
sg128
F0.0
sg129
F0.0
sg130
F0.0
sg131
F0.0
sg132
F0.0
sg133
F0.0
sg134
F14.0
sg135
F0.0
sg136
F0.0
sg137
F0.0
sg138
F0.0
sg139
F0.0
sg140
F0.0
sg141
F0.0
sg142
F0.0
sg143
F0.0
sg144
F0.0
sg145
F0.0
sg146
F0.0
sg147
F0.0
sg148
F0.0
sg149
F0.0
sg150
F0.0
sg151
F0.0
sg152
F0.0
sg153
F0.0
sg154
F0.0
sg155
F0.0
sg156
F0.0
sg157
F0.0
sg158
F0.0
sg159
F0.0
sg160
F0.0
sg161
F0.0
sg162
F0.0
sg163
F0.0
sg164
F0.0
sg165
F0.0
sg166
F0.0
sg167
F14.0
sg168
F0.0
stp607
s(S'34df4d758b84a3ce26a502aaa42939b8'
p608
S'2014-06-08'
p609
tp610
(S'trojan.js.iframe.avt'
p611
(dp612
g6
F0.0
sg7
F0.0
sg8
F0.0
sg9
F0.0
sg10
F0.0
sg11
F0.0
sg12
F81.0
sg13
F0.0
sg14
F0.0
sg15
F0.0
sg16
F0.0
sg17
F0.0
sg18
F0.0
sg19
F0.0
sg20
F0.0
sg21
F0.0
sg22
F0.0
sg23
F0.0
sg24
F0.0
sg25
F0.0
sg26
F2.0
sg27
F0.0
sg28
F0.0
sg29
F0.0
sg30
F0.0
sg31
F0.0
sg32
F0.0
sg33
F0.0
sg34
F0.0
sg35
F0.0
sg36
F0.0
sg37
F0.0
sg38
F0.0
sg39
F0.0
sg40
F0.0
sg41
F0.0
sg42
F0.0
sg43
F0.0
sg44
F0.0
sg45
F29.0
sg46
F0.0
sg47
F0.0
sg48
F0.0
sg49
F0.0
sg50
F0.0
sg51
F0.0
sg52
F0.0
sg53
F0.0
sg54
F0.0
sg55
F0.0
sg56
F0.0
sg57
F0.0
sg58
F0.0
sg59
F0.0
sg60
F0.0
sg61
F0.0
sg62
F0.0
sg63
F0.0
sg64
F0.0
sg65
F0.0
sg66
F0.0
sg67
F16.0
sg68
F0.0
sg69
F0.0
sg70
F31.0
sg71
F0.0
sg72
F0.0
sg73
F0.0
sg74
F0.0
sg75
F0.0
sg76
F0.0
sg77
F0.0
sg78
F0.0
sg79
F0.0
sg80
F0.0
sg81
F0.0
sg82
F0.0
sg83
F0.0
sg84
F0.0
sg85
F0.0
sg86
F0.0
sg87
F0.0
sg88
F0.0
sg89
F0.0
sg90
F0.0
sg91
F0.0
sg92
F0.0
sg93
F0.0
sg94
F0.0
sg95
F40.0
sg96
F0.0
sg97
F0.0
sg98
F0.0
sg99
F0.0
sg100
F0.0
sg101
F0.0
sg102
F0.0
sg103
F0.0
sg104
F0.0
sg105
F0.0
sg106
F0.0
sg107
F0.0
sg108
F0.0
sg109
F0.0
sg110
F0.0
sg111
F0.0
sg112
F0.0
sg113
F0.0
sg114
F0.0
sg115
F0.0
sg116
F0.0
sg117
F0.0
sg118
F0.0
sg119
F0.0
sg120
F0.0
sg121
F0.0
sg122
F0.0
sg123
F0.0
sg124
F0.0
sg125
F0.0
sg126
F0.0
sg127
F0.0
sg128
F0.0
sg129
F0.0
sg130
F0.0
sg131
F0.0
sg132
F0.0
sg133
F0.0
sg134
F0.0
sg135
F0.0
sg136
F0.0
sg137
F0.0
sg138
F0.0
sg139
F0.0
sg140
F0.0
sg141
F0.0
sg142
F0.0
sg143
F0.0
sg144
F0.0
sg145
F0.0
sg146
F0.0
sg147
F0.0
sg148
F12.0
sg149
F0.0
sg150
F0.0
sg151
F0.0
sg152
F0.0
sg153
F0.0
sg154
F0.0
sg155
F0.0
sg156
F0.0
sg157
F0.0
sg158
F0.0
sg159
F0.0
sg160
F0.0
sg161
F0.0
sg162
F0.0
sg163
F0.0
sg164
F0.0
sg165
F16.0
sg166
F0.0
sg167
F0.0
sg168
F0.0
stp613
s(S'4bc33e53b0864a5f345acf7947827d21'
p614
S'2014-07-11'
p615
tp616
(S'smsreg'
p617
(dp618
g6
F0.0
sg7
F0.0
sg8
F0.0
sg9
F0.0
sg10
F0.0
sg11
F0.0
sg12
F0.0
sg13
F0.0
sg14
F0.0
sg15
F0.0
sg16
F0.0
sg17
F0.0
sg18
F0.0
sg19
F0.0
sg20
F0.0
sg21
F0.0
sg22
F0.0
sg23
F0.0
sg24
F0.0
sg25
F0.0
sg26
F2.0
sg27
F0.0
sg28
F0.0
sg29
F0.0
sg30
F0.0
sg31
F0.0
sg32
F0.0
sg33
F0.0
sg34
F0.0
sg35
F0.0
sg36
F0.0
sg37
F0.0
sg38
F0.0
sg39
F0.0
sg40
F376.0
sg41
F0.0
sg42
F75.0
sg43
F11400.0
sg44
F0.0
sg45
F0.0
sg46
F0.0
sg47
F0.0
sg48
F0.0
sg49
F0.0
sg50
F0.0
sg51
F0.0
sg52
F0.0
sg53
F0.0
sg54
F0.0
sg55
F0.0
sg56
F0.0
sg57
F0.0
sg58
F0.0
sg59
F0.0
sg60
F0.0
sg61
F4.0
sg62
F0.0
sg63
F0.0
sg64
F25.0
sg65
F0.0
sg66
F0.0
sg67
F25.0
sg68
F0.0
sg69
F0.0
sg70
F0.0
sg71
F0.0
sg72
F0.0
sg73
F0.0
sg74
F0.0
sg75
F0.0
sg76
F0.0
sg77
F0.0
sg78
F0.0
sg79
F0.0
sg80
F0.0
sg81
F0.0
sg82
F0.0
sg83
F0.0
sg84
F0.0
sg85
F0.0
sg86
F0.0
sg87
F0.0
sg88
F0.0
sg89
F0.0
sg90
F16.0
sg91
F0.0
sg92
F0.0
sg93
F0.0
sg94
F0.0
sg95
F54.0
sg96
F0.0
sg97
F0.0
sg98
F0.0
sg99
F0.0
sg100
F0.0
sg101
F0.0
sg102
F0.0
sg103
F0.0
sg104
F0.0
sg105
F0.0
sg106
F0.0
sg107
F0.0
sg108
F0.0
sg109
F0.0
sg110
F0.0
sg111
F0.0
sg112
F0.0
sg113
F0.0
sg114
F0.0
sg115
F0.0
sg116
F0.0
sg117
F0.0
sg118
F0.0
sg119
F0.0
sg120
F0.0
sg121
F0.0
sg122
F0.0
sg123
F0.0
sg124
F0.0
sg125
F0.0
sg126
F0.0
sg127
F0.0
sg128
F0.0
sg129
F0.0
sg130
F0.0
sg131
F0.0
sg132
F0.0
sg133
F0.0
sg134
F0.0
sg135
F0.0
sg136
F0.0
sg137
F0.0
sg138
F0.0
sg139
F0.0
sg140
F0.0
sg141
F0.0
sg142
F0.0
sg143
F0.0
sg144
F0.0
sg145
F0.0
sg146
F0.0
sg147
F0.0
sg148
F0.0
sg149
F0.0
sg150
F0.0
sg151
F0.0
sg152
F0.0
sg153
F0.0
sg154
F25.0
sg155
F0.0
sg156
F0.0
sg157
F0.0
sg158
F0.0
sg159
F0.0
sg160
F0.0
sg161
F2.0
sg162
F0.0
sg163
F0.0
sg164
F0.0
sg165
F0.0
sg166
F0.0
sg167
F0.0
sg168
F0.0
stp619
s(S'02d09519ec7c3020c324e52735a66644'
p620
S'2014-10-22'
p621
tp622
(S'smssend'
p623
(dp624
g6
F0.0
sg7
F0.0
sg8
F0.0
sg9
F0.0
sg10
F0.0
sg11
F0.0
sg12
F1.0
sg13
F0.0
sg14
F0.0
sg15
F0.0
sg16
F0.0
sg17
F0.0
sg18
F0.0
sg19
F0.0
sg20
F0.0
sg21
F0.0
sg22
F0.0
sg23
F0.0
sg24
F0.0
sg25
F0.0
sg26
F0.0
sg27
F0.0
sg28
F0.0
sg29
F0.0
sg30
F0.0
sg31
F0.0
sg32
F0.0
sg33
F0.0
sg34
F0.0
sg35
F0.0
sg36
F0.0
sg37
F0.0
sg38
F0.0
sg39
F0.0
sg40
F0.0
sg41
F0.0
sg42
F3.0
sg43
F0.0
sg44
F0.0
sg45
F0.0
sg46
F0.0
sg47
F0.0
sg48
F0.0
sg49
F0.0
sg50
F0.0
sg51
F0.0
sg52
F0.0
sg53
F0.0
sg54
F0.0
sg55
F0.0
sg56
F0.0
sg57
F0.0
sg58
F0.0
sg59
F0.0
sg60
F0.0
sg61
F0.0
sg62
F0.0
sg63
F0.0
sg64
F0.0
sg65
F0.0
sg66
F0.0
sg67
F0.0
sg68
F0.0
sg69
F6.0
sg70
F0.0
sg71
F0.0
sg72
F0.0
sg73
F0.0
sg74
F0.0
sg75
F0.0
sg76
F0.0
sg77
F0.0
sg78
F0.0
sg79
F0.0
sg80
F0.0
sg81
F0.0
sg82
F0.0
sg83
F0.0
sg84
F0.0
sg85
F0.0
sg86
F0.0
sg87
F0.0
sg88
F0.0
sg89
F0.0
sg90
F0.0
sg91
F0.0
sg92
F0.0
sg93
F0.0
sg94
F0.0
sg95
F2.0
sg96
F0.0
sg97
F0.0
sg98
F0.0
sg99
F0.0
sg100
F0.0
sg101
F0.0
sg102
F0.0
sg103
F0.0
sg104
F0.0
sg105
F0.0
sg106
F0.0
sg107
F0.0
sg108
F0.0
sg109
F0.0
sg110
F0.0
sg111
F0.0
sg112
F0.0
sg113
F0.0
sg114
F0.0
sg115
F0.0
sg116
F0.0
sg117
F0.0
sg118
F0.0
sg119
F0.0
sg120
F0.0
sg121
F0.0
sg122
F0.0
sg123
F0.0
sg124
F0.0
sg125
F0.0
sg126
F0.0
sg127
F0.0
sg128
F0.0
sg129
F0.0
sg130
F0.0
sg131
F0.0
sg132
F0.0
sg133
F0.0
sg134
F0.0
sg135
F0.0
sg136
F0.0
sg137
F0.0
sg138
F0.0
sg139
F0.0
sg140
F0.0
sg141
F0.0
sg142
F0.0
sg143
F0.0
sg144
F0.0
sg145
F0.0
sg146
F0.0
sg147
F0.0
sg148
F0.0
sg149
F0.0
sg150
F0.0
sg151
F0.0
sg152
F0.0
sg153
F0.0
sg154
F1.0
sg155
F0.0
sg156
F0.0
sg157
F0.0
sg158
F0.0
sg159
F0.0
sg160
F0.0
sg161
F0.0
sg162
F0.0
sg163
F0.0
sg164
F0.0
sg165
F0.0
sg166
F6.0
sg167
F0.0
sg168
F0.0
stp625
s(S'68496ab6edd6880e1cb179cc39c290e8'
p626
S'2014-02-27'
p627
tp628
(S'generic'
p629
(dp630
g6
F0.0
sg7
F0.0
sg8
F0.0
sg9
F0.0
sg10
F0.0
sg11
F530.0
sg12
F267.0
sg13
F0.0
sg14
F2.0
sg15
F0.0
sg16
F0.0
sg17
F1.0
sg18
F0.0
sg19
F0.0
sg20
F0.0
sg21
F0.0
sg22
F0.0
sg23
F0.0
sg24
F0.0
sg25
F0.0
sg26
F0.0
sg27
F0.0
sg28
F0.0
sg29
F0.0
sg30
F0.0
sg31
F0.0
sg32
F0.0
sg33
F13.0
sg34
F0.0
sg35
F0.0
sg36
F0.0
sg37
F0.0
sg38
F0.0
sg39
F0.0
sg40
F0.0
sg41
F530.0
sg42
F0.0
sg43
F1259.0
sg44
F0.0
sg45
F0.0
sg46
F0.0
sg47
F0.0
sg48
F0.0
sg49
F3.0
sg50
F0.0
sg51
F0.0
sg52
F0.0
sg53
F0.0
sg54
F0.0
sg55
F0.0
sg56
F0.0
sg57
F0.0
sg58
F0.0
sg59
F528.0
sg60
F0.0
sg61
F0.0
sg62
F0.0
sg63
F0.0
sg64
F12.0
sg65
F0.0
sg66
F0.0
sg67
F24.0
sg68
F0.0
sg69
F0.0
sg70
F0.0
sg71
F0.0
sg72
F528.0
sg73
F0.0
sg74
F0.0
sg75
F0.0
sg76
F0.0
sg77
F0.0
sg78
F0.0
sg79
F0.0
sg80
F0.0
sg81
F0.0
sg82
F0.0
sg83
F0.0
sg84
F0.0
sg85
F0.0
sg86
F0.0
sg87
F0.0
sg88
F0.0
sg89
F0.0
sg90
F0.0
sg91
F0.0
sg92
F0.0
sg93
F0.0
sg94
F0.0
sg95
F1.0
sg96
F0.0
sg97
F0.0
sg98
F0.0
sg99
F0.0
sg100
F0.0
sg101
F0.0
sg102
F0.0
sg103
F0.0
sg104
F0.0
sg105
F0.0
sg106
F0.0
sg107
F0.0
sg108
F0.0
sg109
F0.0
sg110
F0.0
sg111
F0.0
sg112
F0.0
sg113
F0.0
sg114
F0.0
sg115
F0.0
sg116
F0.0
sg117
F0.0
sg118
F0.0
sg119
F0.0
sg120
F0.0
sg121
F0.0
sg122
F0.0
sg123
F0.0
sg124
F0.0
sg125
F0.0
sg126
F0.0
sg127
F0.0
sg128
F0.0
sg129
F0.0
sg130
F0.0
sg131
F0.0
sg132
F0.0
sg133
F0.0
sg134
F265.0
sg135
F0.0
sg136
F0.0
sg137
F0.0
sg138
F0.0
sg139
F0.0
sg140
F0.0
sg141
F0.0
sg142
F0.0
sg143
F0.0
sg144
F0.0
sg145
F0.0
sg146
F0.0
sg147
F0.0
sg148
F0.0
sg149
F0.0
sg150
F0.0
sg151
F0.0
sg152
F0.0
sg153
F0.0
sg154
F1.0
sg155
F0.0
sg156
F0.0
sg157
F0.0
sg158
F0.0
sg159
F0.0
sg160
F0.0
sg161
F0.0
sg162
F0.0
sg163
F0.0
sg164
F0.0
sg165
F0.0
sg166
F13.0
sg167
F265.0
sg168
F262.0
stp631
s.