((dp0
S'com.licravins'
p1
(lp2
F0.1002
aF0.0003
aF0.0
aF0.1917
aF0.0588
aF0.0
aF0.5609
aF0.0505
aF0.0377
aF0.1737
aF0.2335
aF0.5928
aF0.1558
aF0.3182
aF0.526
aF0.0409
aF0.1153
aF0.8438
aF0.041
aF0.1153
aF0.8437
aF1.0
aF0.0
aF0.0
aF0.0
aF1.0
aF0.0
aF0.0
aF0.0
aF0.5227
aF0.0
aF0.0
aF0.4773
aF0.4545
aF0.4091
aF0.0
aF0.1088
aF0.0678
aF0.1365
aF0.0733
aF0.5217
aF0.7907
aF0.1066
aF0.1208
aF0.0
aF0.0
aF0.0
aF0.0
aF0.029
aF0.0111
aF0.0
aF0.0
aF0.0
aF0.0
aF0.0
aF0.0
aF0.971
aF0.9889
aF1.0
aF1.0
aF0.0
aF0.0
aF0.0
aF0.0
aF0.907
aF0.6681
aF0.9706
aF0.9045
aF0.0233
aF0.0091
aF0.0
aF0.0
aF0.0233
aF0.0225
aF0.0
aF0.0
aF0.0
aF0.0
aF0.0
aF0.0
aF0.0
aF0.0
aF0.0
aF0.0
aF0.0465
aF0.3004
aF0.0294
aF0.0955
aF0.0363
aF0.03
aF0.005
aF0.0573
aF1.0
aF1.0
aF0.0
aF0.0
aF0.0
aF0.0
aF0.0
aF0.0
aF0.0
aF0.0
aF0.0
aF0.0
aF0.0
aF0.0
aF0.0
aF0.0
aF0.0
aF0.0
aF0.0
aF0.0
aF0.6316
aF0.993
aF0.0
aF0.0
aF0.2105
aF0.0047
aF0.0
aF0.0
aF0.1579
aF0.0023
asS'com.TeenBoysRoomIdea.JohnKazmierczak'
p3
(lp4
F0.9393
aF0.0
aF0.0
aF0.0
aF0.0
aF0.0
aF0.0551
aF0.0
aF0.0056
aF0.0238
aF0.0
aF0.9762
aF0.0179
aF0.0
aF0.9821
aF0.0057
aF0.0
aF0.9943
aF0.0057
aF0.0
aF0.9943
aF0.5
aF0.0
aF0.5
aF0.0
aF0.7
aF0.0
aF0.3
aF0.0
aF0.0
aF0.0
aF0.0
aF0.0
aF0.0
aF0.0
aF0.0
aF0.1187
aF0.0801
aF0.2299
aF0.0538
aF0.25
aF0.7778
aF0.0612
aF0.5499
aF0.0
aF0.0
aF0.0
aF0.0
aF0.0
aF0.0
aF0.0
aF0.0
aF0.0
aF0.0
aF0.0
aF0.0
aF0.975
aF0.9938
aF1.0
aF1.0
aF0.025
aF0.0062
aF0.0
aF0.0
aF0.9259
aF0.9211
aF0.9524
aF0.9524
aF0.0
aF0.0
aF0.0
aF0.0
aF0.0741
aF0.0789
aF0.0476
aF0.0476
aF0.0
aF0.0
aF0.0
aF0.0
aF0.0
aF0.0
aF0.0
aF0.0
aF0.0
aF0.0
aF0.0
aF0.0
aF0.0059
aF0.003
aF0.0014
aF0.0014
aF1.0
aF1.0
aF0.0
aF0.0
aF0.0
aF0.0
aF0.0
aF0.0
aF0.0
aF0.0
aF0.0
aF0.0
aF1.0
aF1.0
aF0.0
aF0.0
aF0.0
aF0.0
aF0.0
aF0.0
aF0.0
aF0.0
aF0.0
aF0.0
aF0.0
aF0.0
aF0.0
aF0.0
aF0.0
aF0.0
asS'com.szsg.szlrs'
p5
(lp6
F0.0
aF0.0
aF0.0
aF0.8394833333333334
aF0.16051666666666664
aF0.0
aF0.0
aF0.0
aF0.0
aF0.0
aF0.40735000000000005
aF0.59265
aF0.0
aF0.40225
aF0.5977500000000001
aF0.0
aF0.16076666666666667
aF0.8392333333333334
aF0.0
aF0.16086666666666666
aF0.8391333333333334
aF0.4285666666666667
aF0.0
aF0.5714333333333333
aF0.0
aF0.8266833333333333
aF0.0
aF0.17331666666666667
aF0.0
aF0.0
aF0.0
aF0.0
aF0.0
aF0.0
aF0.0
aF0.0
aF0.17111666666666667
aF0.03935
aF0.17350000000000002
aF0.06178333333333333
aF0.35433333333333333
aF0.8277500000000001
aF0.2988
aF0.0291
aF0.0
aF0.0
aF0.0
aF0.0
aF0.0
aF0.0
aF0.0
aF0.0
aF0.0
aF0.0
aF0.0
aF0.0
aF0.9639833333333333
aF0.9962500000000002
aF1.0
aF1.0
aF0.03601666666666667
aF0.00375
aF0.0
aF0.0
aF0.7416666666666667
aF0.03573333333333333
aF0.8958333333333334
aF0.9428666666666667
aF0.0
aF0.0
aF0.0
aF0.0
aF0.17225
aF0.022233333333333338
aF0.0
aF0.0
aF0.0
aF0.0
aF0.0
aF0.0
aF0.0
aF0.0
aF0.0
aF0.0
aF0.08608333333333333
aF0.9420166666666666
aF0.10416666666666667
aF0.05713333333333334
aF0.016966666666666668
aF0.006766666666666667
aF0.00045000000000000004
aF0.00043333333333333337
aF0.4285666666666667
aF0.49571666666666664
aF0.4285666666666667
aF0.49571666666666664
aF0.14286666666666667
aF0.00855
aF0.0
aF0.0
aF0.0
aF0.0
aF0.0
aF0.0
aF1.0
aF1.0
aF0.0
aF0.0
aF0.0
aF0.0
aF0.0
aF0.0
aF0.0
aF0.0
aF0.0
aF0.0
aF0.0
aF0.0
aF0.0
aF0.0
aF0.0
aF0.0
asS'com.GardenWallPathDesign.JohnKazmierczak'
p7
(lp8
F0.9392
aF0.0
aF0.0
aF0.0
aF0.0
aF0.0
aF0.0551
aF0.0
aF0.0056
aF0.0238
aF0.0
aF0.9762
aF0.0179
aF0.0
aF0.9821
aF0.0057
aF0.0
aF0.9943
aF0.0057
aF0.0
aF0.9943
aF0.5
aF0.0
aF0.5
aF0.0
aF0.7004
aF0.0
aF0.2996
aF0.0
aF0.0
aF0.0
aF0.0
aF0.0
aF0.0
aF0.0
aF0.0
aF0.1187
aF0.0801
aF0.2299
aF0.0538
aF0.25
aF0.7778
aF0.0612
aF0.5498
aF0.0
aF0.0
aF0.0
aF0.0
aF0.0
aF0.0
aF0.0
aF0.0
aF0.0
aF0.0
aF0.0
aF0.0
aF0.975
aF0.9938
aF1.0
aF1.0
aF0.025
aF0.0062
aF0.0
aF0.0
aF0.9259
aF0.9211
aF0.9524
aF0.9524
aF0.0
aF0.0
aF0.0
aF0.0
aF0.0741
aF0.0789
aF0.0476
aF0.0476
aF0.0
aF0.0
aF0.0
aF0.0
aF0.0
aF0.0
aF0.0
aF0.0
aF0.0
aF0.0
aF0.0
aF0.0
aF0.0059
aF0.003
aF0.0014
aF0.0014
aF1.0
aF1.0
aF0.0
aF0.0
aF0.0
aF0.0
aF0.0
aF0.0
aF0.0
aF0.0
aF0.0
aF0.0
aF1.0
aF1.0
aF0.0
aF0.0
aF0.0
aF0.0
aF0.0
aF0.0
aF0.0
aF0.0
aF0.0
aF0.0
aF0.0
aF0.0
aF0.0
aF0.0
aF0.0
aF0.0
asS'yct.game.cnhjfb.jusdfsgdgr'
p9
(lp10
F0.0
aF0.0
aF0.0
aF0.9505399999999999
aF0.04946
aF0.0
aF0.0
aF0.0
aF0.0
aF0.0
aF0.27788
aF0.7221200000000001
aF0.0
aF0.30006000000000005
aF0.69994
aF0.0
aF0.04986
aF0.95014
aF0.0
aF0.04992
aF0.95008
aF0.0
aF0.0
aF1.0
aF0.0
aF0.0
aF0.0
aF1.0
aF0.0
aF0.0
aF0.0
aF0.0
aF0.0
aF0.0
aF0.0
aF0.0
aF0.20695999999999998
aF0.03452
aF0.05614
aF0.00438
aF0.3667
aF1.0
aF0.16894
aF0.49002
aF0.0
aF0.0
aF0.0
aF0.0
aF0.0
aF0.0
aF0.0
aF0.0
aF0.0
aF0.0
aF0.0
aF0.0
aF0.9667
aF0.9852000000000001
aF1.0
aF1.0
aF0.0333
aF0.014800000000000002
aF0.0
aF0.0
aF0.8
aF0.80844
aF0.8
aF0.79948
aF0.0
aF0.0
aF0.0
aF0.0
aF0.0
aF0.0
aF0.0
aF0.0
aF0.0
aF0.0
aF0.0
aF0.0
aF0.0
aF0.0
aF0.0
aF0.0
aF0.2
aF0.19156
aF0.2
aF0.20051999999999998
aF0.013800000000000002
aF0.00692
aF0.0008200000000000001
aF0.0008
aF0.0
aF0.0
aF1.0
aF1.0
aF0.0
aF0.0
aF0.0
aF0.0
aF0.0
aF0.0
aF0.0
aF0.0
aF0.0
aF0.0
aF0.0
aF0.0
aF0.0
aF0.0
aF0.0
aF0.0
aF1.0
aF1.0
aF0.0
aF0.0
aF0.0
aF0.0
aF0.0
aF0.0
aF0.0
aF0.0
asS'com.ckresonance.app'
p11
(lp12
F0.2197
aF0.0355
aF0.0
aF0.6145
aF0.107
aF0.0034
aF0.0103
aF0.0075
aF0.0021
aF0.0344
aF0.3206
aF0.645
aF0.0215
aF0.3395
aF0.6391
aF0.0059
aF0.1544
aF0.8397
aF0.0059
aF0.1544
aF0.8397
aF0.7143
aF0.0
aF0.2857
aF0.0
aF0.963
aF0.0
aF0.037
aF0.0
aF0.75
aF0.0
aF0.1667
aF0.0833
aF0.0
aF0.25
aF0.0
aF0.1337
aF0.0415
aF0.2235
aF0.032
aF0.4167
aF0.6098
aF0.0949
aF0.1465
aF0.0
aF0.0
aF0.0
aF0.0
aF0.053
aF0.023
aF0.0364
aF0.018
aF0.0
aF0.0
aF0.0
aF0.0
aF0.947
aF0.977
aF0.9636
aF0.982
aF0.0
aF0.0
aF0.0
aF0.0
aF0.8049
aF0.9465
aF0.92
aF0.9898
aF0.0
aF0.0
aF0.0
aF0.0
aF0.0976
aF0.0454
aF0.0
aF0.0
aF0.0
aF0.0
aF0.0
aF0.0
aF0.0488
aF0.0037
aF0.04
aF0.0051
aF0.0488
aF0.0045
aF0.04
aF0.0051
aF0.0132
aF0.0203
aF0.002
aF0.0107
aF0.7692
aF0.9518
aF0.1538
aF0.0361
aF0.0769
aF0.012
aF0.0
aF0.0
aF0.0
aF0.0
aF0.0
aF0.0
aF0.0
aF0.0
aF0.0
aF0.0
aF0.0
aF0.0
aF0.0
aF0.0
aF0.15
aF0.0601
aF0.0
aF0.0
aF0.75
aF0.853
aF0.05
aF0.0802
aF0.05
aF0.0067
asS'shakira.abadi.ropearthandmade'
p13
(lp14
F0.9454
aF0.0
aF0.0
aF0.0
aF0.0
aF0.0
aF0.0495
aF0.0
aF0.0051
aF0.0172
aF0.0
aF0.9828
aF0.013
aF0.0
aF0.987
aF0.0051
aF0.0
aF0.9949
aF0.0051
aF0.0
aF0.9949
aF0.5
aF0.0
aF0.5
aF0.0
aF0.7012
aF0.0
aF0.2988
aF0.0
aF0.0
aF0.0
aF0.0
aF0.0
aF0.0
aF0.0
aF0.0
aF0.0987
aF0.0365
aF0.1208
aF0.0251
aF0.1522
aF0.7647
aF0.1045
aF0.7061
aF0.0
aF0.0
aF0.0
aF0.0
aF0.0
aF0.0
aF0.0
aF0.0
aF0.0
aF0.0
aF0.0
aF0.0
aF0.9783
aF0.9935
aF1.0
aF1.0
aF0.0217
aF0.0065
aF0.0
aF0.0
aF0.8824
aF0.805
aF0.9231
aF0.8574
aF0.0
aF0.0
aF0.0
aF0.0
aF0.1176
aF0.195
aF0.0769
aF0.1426
aF0.0
aF0.0
aF0.0
aF0.0
aF0.0
aF0.0
aF0.0
aF0.0
aF0.0
aF0.0
aF0.0
aF0.0
aF0.0043
aF0.0021
aF0.0013
aF0.0013
aF1.0
aF1.0
aF0.0
aF0.0
aF0.0
aF0.0
aF0.0
aF0.0
aF0.0
aF0.0
aF0.0
aF0.0
aF1.0
aF1.0
aF0.0
aF0.0
aF0.0
aF0.0
aF0.0
aF0.0
aF0.0
aF0.0
aF0.0
aF0.0
aF0.0
aF0.0
aF0.0
aF0.0
aF0.0
aF0.0
asS'com.DIYmasonJar.JoyceBurklin'
p15
(lp16
F0.9393
aF0.0
aF0.0
aF0.0
aF0.0
aF0.0
aF0.0551
aF0.0
aF0.0056
aF0.0238
aF0.0
aF0.9762
aF0.0179
aF0.0
aF0.9821
aF0.0057
aF0.0
aF0.9943
aF0.0057
aF0.0
aF0.9943
aF0.5
aF0.0
aF0.5
aF0.0
aF0.7
aF0.0
aF0.3
aF0.0
aF0.0
aF0.0
aF0.0
aF0.0
aF0.0
aF0.0
aF0.0
aF0.1187
aF0.0801
aF0.2299
aF0.0537
aF0.25
aF0.7778
aF0.0613
aF0.5502
aF0.0
aF0.0
aF0.0
aF0.0
aF0.0
aF0.0
aF0.0
aF0.0
aF0.0
aF0.0
aF0.0
aF0.0
aF0.975
aF0.9938
aF1.0
aF1.0
aF0.025
aF0.0062
aF0.0
aF0.0
aF0.9259
aF0.9211
aF0.9524
aF0.9524
aF0.0
aF0.0
aF0.0
aF0.0
aF0.0741
aF0.0789
aF0.0476
aF0.0476
aF0.0
aF0.0
aF0.0
aF0.0
aF0.0
aF0.0
aF0.0
aF0.0
aF0.0
aF0.0
aF0.0
aF0.0
aF0.0059
aF0.003
aF0.0014
aF0.0014
aF1.0
aF1.0
aF0.0
aF0.0
aF0.0
aF0.0
aF0.0
aF0.0
aF0.0
aF0.0
aF0.0
aF0.0
aF1.0
aF1.0
aF0.0
aF0.0
aF0.0
aF0.0
aF0.0
aF0.0
aF0.0
aF0.0
aF0.0
aF0.0
aF0.0
aF0.0
aF0.0
aF0.0
aF0.0
aF0.0
asS'com.mozgame.fever.candy'
p17
(lp18
F0.0
aF0.0
aF0.0
aF0.7187
aF0.2813
aF0.0
aF0.0
aF0.0
aF0.0
aF0.0
aF0.375
aF0.625
aF0.0
aF0.5
aF0.5
aF0.0
aF0.2821
aF0.7179
aF0.0
aF0.2843
aF0.7157
aF0.0
aF0.0
aF0.0
aF0.0
aF0.0
aF0.0
aF0.0
aF0.0
aF0.0
aF0.0
aF0.0
aF0.0
aF0.0
aF0.0
aF0.0
aF0.1205
aF0.0
aF0.1326
aF0.0
aF0.0
aF0.0
aF0.0
aF0.0
aF0.0
aF0.0
aF0.0
aF0.0
aF0.0
aF0.0
aF0.0
aF0.0
aF0.0
aF0.0
aF0.0
aF0.0
aF1.0
aF1.0
aF0.0
aF0.0
aF0.0
aF0.0
aF0.0
aF0.0
aF0.0
aF0.0
aF0.0
aF0.0
aF0.0
aF0.0
aF0.0
aF0.0
aF0.0
aF0.0
aF0.0
aF0.0
aF0.0
aF0.0
aF0.0
aF0.0
aF0.0
aF0.0
aF0.0
aF0.0
aF0.0
aF0.0
aF0.0
aF0.0
aF0.0241
aF0.012
aF0.0079
aF0.0078
aF0.0
aF0.0
aF1.0
aF1.0
aF0.0
aF0.0
aF0.0
aF0.0
aF0.0
aF0.0
aF0.0
aF0.0
aF0.0
aF0.0
aF0.0
aF0.0
aF0.0
aF0.0
aF0.0
aF0.0
aF1.0
aF1.0
aF0.0
aF0.0
aF0.0
aF0.0
aF0.0
aF0.0
aF0.0
aF0.0
asS'com.mozgame.fruitssplash'
p19
(lp20
F0.0
aF0.0
aF0.0
aF0.7153499999999999
aF0.28464999999999996
aF0.0
aF0.0
aF0.0
aF0.0
aF0.0
aF0.375
aF0.625
aF0.0
aF0.503
aF0.497
aF0.0
aF0.2855
aF0.7145
aF0.0
aF0.28774999999999995
aF0.71225
aF0.0
aF0.0
aF0.0
aF0.0
aF0.0
aF0.0
aF0.0
aF0.0
aF0.0
aF0.0
aF0.0
aF0.0
aF0.0
aF0.0
aF0.0
aF0.11975
aF0.0
aF0.1344
aF0.0
aF0.0
aF0.0
aF0.0
aF0.0
aF0.0
aF0.0
aF0.0
aF0.0
aF0.0
aF0.0
aF0.0
aF0.0
aF0.0
aF0.0
aF0.0
aF0.0
aF1.0
aF1.0
aF0.0
aF0.0
aF0.0
aF0.0
aF0.0
aF0.0
aF0.0
aF0.0
aF0.0
aF0.0
aF0.0
aF0.0
aF0.0
aF0.0
aF0.0
aF0.0
aF0.0
aF0.0
aF0.0
aF0.0
aF0.0
aF0.0
aF0.0
aF0.0
aF0.0
aF0.0
aF0.0
aF0.0
aF0.0
aF0.0
aF0.02395
aF0.01195
aF0.00775
aF0.0077
aF0.0
aF0.0
aF1.0
aF1.0
aF0.0
aF0.0
aF0.0
aF0.0
aF0.0
aF0.0
aF0.0
aF0.0
aF0.0
aF0.0
aF0.0
aF0.0
aF0.0
aF0.0
aF0.0
aF0.0
aF1.0
aF1.0
aF0.0
aF0.0
aF0.0
aF0.0
aF0.0
aF0.0
aF0.0
aF0.0
asS'com.aaronbalderapps.sofabeddesignideas'
p21
(lp22
F0.9384
aF0.0
aF0.0
aF0.0
aF0.0
aF0.0
aF0.0559
aF0.0
aF0.0057
aF0.0238
aF0.0
aF0.9762
aF0.0179
aF0.0
aF0.9821
aF0.0058
aF0.0
aF0.9942
aF0.0058
aF0.0
aF0.9942
aF0.5
aF0.0
aF0.5
aF0.0
aF0.7
aF0.0
aF0.3
aF0.0
aF0.0
aF0.0
aF0.0
aF0.0
aF0.0
aF0.0
aF0.0
aF0.119
aF0.0804
aF0.2317
aF0.0545
aF0.25
aF0.7778
aF0.0616
aF0.5498
aF0.0
aF0.0
aF0.0
aF0.0
aF0.0
aF0.0
aF0.0
aF0.0
aF0.0
aF0.0
aF0.0
aF0.0
aF0.975
aF0.9938
aF1.0
aF1.0
aF0.025
aF0.0062
aF0.0
aF0.0
aF0.9259
aF0.9211
aF0.9524
aF0.9524
aF0.0
aF0.0
aF0.0
aF0.0
aF0.0741
aF0.0789
aF0.0476
aF0.0476
aF0.0
aF0.0
aF0.0
aF0.0
aF0.0
aF0.0
aF0.0
aF0.0
aF0.0
aF0.0
aF0.0
aF0.0
aF0.006
aF0.003
aF0.0014
aF0.0014
aF1.0
aF1.0
aF0.0
aF0.0
aF0.0
aF0.0
aF0.0
aF0.0
aF0.0
aF0.0
aF0.0
aF0.0
aF1.0
aF1.0
aF0.0
aF0.0
aF0.0
aF0.0
aF0.0
aF0.0
aF0.0
aF0.0
aF0.0
aF0.0
aF0.0
aF0.0
aF0.0
aF0.0
aF0.0
aF0.0
asS'com.aaronbalderapps.new3dhomefloorplanideas'
p23
(lp24
F0.9393
aF0.0
aF0.0
aF0.0
aF0.0
aF0.0
aF0.0551
aF0.0
aF0.0056
aF0.0238
aF0.0
aF0.9762
aF0.0179
aF0.0
aF0.9821
aF0.0057
aF0.0
aF0.9943
aF0.0057
aF0.0
aF0.9943
aF0.5
aF0.0
aF0.5
aF0.0
aF0.7
aF0.0
aF0.3
aF0.0
aF0.0
aF0.0
aF0.0
aF0.0
aF0.0
aF0.0
aF0.0
aF0.1187
aF0.0801
aF0.2299
aF0.0537
aF0.25
aF0.7778
aF0.0613
aF0.5501
aF0.0
aF0.0
aF0.0
aF0.0
aF0.0
aF0.0
aF0.0
aF0.0
aF0.0
aF0.0
aF0.0
aF0.0
aF0.975
aF0.9938
aF1.0
aF1.0
aF0.025
aF0.0062
aF0.0
aF0.0
aF0.9259
aF0.9211
aF0.9524
aF0.9524
aF0.0
aF0.0
aF0.0
aF0.0
aF0.0741
aF0.0789
aF0.0476
aF0.0476
aF0.0
aF0.0
aF0.0
aF0.0
aF0.0
aF0.0
aF0.0
aF0.0
aF0.0
aF0.0
aF0.0
aF0.0
aF0.0059
aF0.003
aF0.0014
aF0.0014
aF1.0
aF1.0
aF0.0
aF0.0
aF0.0
aF0.0
aF0.0
aF0.0
aF0.0
aF0.0
aF0.0
aF0.0
aF1.0
aF1.0
aF0.0
aF0.0
aF0.0
aF0.0
aF0.0
aF0.0
aF0.0
aF0.0
aF0.0
aF0.0
aF0.0
aF0.0
aF0.0
aF0.0
aF0.0
aF0.0
asS'com.ranup.catatanfiqih'
p25
(lp26
F0.45895
aF0.0
aF0.0
aF0.0
aF0.0
aF0.0
aF0.03025
aF0.0
aF0.0108
aF0.0319
aF0.0
aF0.4681
aF0.03515
aF0.0
aF0.46485
aF0.0109
aF0.0
aF0.4891
aF0.01095
aF0.0
aF0.48905
aF0.33335
aF0.0
aF0.16665
aF0.0
aF0.4884
aF0.0
aF0.0116
aF0.0
aF0.0
aF0.0
aF0.5
aF0.0
aF0.0
aF0.0
aF0.0
aF0.0474
aF0.01245
aF0.05975
aF0.00765
aF0.07895
aF0.175
aF0.02325
aF0.10245
aF0.0
aF0.0
aF0.0
aF0.0
aF0.0
aF0.0
aF0.0
aF0.0
aF0.0
aF0.0
aF0.0
aF0.0
aF0.4934
aF0.49775
aF0.5
aF0.5
aF0.0066
aF0.00225
aF0.0
aF0.0
aF0.425
aF0.40605
aF0.42855
aF0.4462
aF0.025
aF0.00665
aF0.0
aF0.0
aF0.05
aF0.0873
aF0.07145
aF0.0538
aF0.0
aF0.0
aF0.0
aF0.0
aF0.0
aF0.0
aF0.0
aF0.0
aF0.0
aF0.0
aF0.0
aF0.0
aF0.00625
aF0.0025
aF0.0013
aF0.0173
aF0.4
aF0.39265
aF0.1
aF0.10735
aF0.0
aF0.0
aF0.0
aF0.0
aF0.0
aF0.0
aF0.0
aF0.0
aF0.0
aF0.0
aF0.0
aF0.0
aF0.0
aF0.0
aF0.0
aF0.0
aF0.5
aF0.5
aF0.0
aF0.0
aF0.0
aF0.0
aF0.0
aF0.0
aF0.0
aF0.0
asS'id.timphan.keposyariah'
p27
(lp28
F0.8646666666666666
aF0.0
aF6.666666666666667e-05
aF0.0766
aF0.018566666666666665
aF0.0
aF0.03643333333333333
aF0.0014999999999999998
aF0.0021666666666666666
aF0.027033333333333336
aF0.06546666666666667
aF0.9075000000000001
aF0.012333333333333333
aF0.06286666666666667
aF0.9248
aF0.0023
aF0.0202
aF0.9775
aF0.0023
aF0.020233333333333332
aF0.9774333333333333
aF0.7888666666666667
aF0.06666666666666667
aF0.14446666666666666
aF0.0
aF0.9933
aF0.0004333333333333333
aF0.006266666666666667
aF0.0
aF0.0
aF0.0
aF0.9822333333333333
aF0.017766666666666667
aF0.0
aF0.0
aF0.0
aF0.09993333333333333
aF0.0292
aF0.20246666666666666
aF0.015366666666666666
aF0.14313333333333333
aF0.43239999999999995
aF0.0352
aF0.29096666666666665
aF0.0
aF0.0
aF0.0
aF0.0
aF0.018666666666666665
aF0.0009333333333333332
aF0.0
aF0.0
aF0.0
aF0.0
aF0.0
aF0.0
aF0.9813333333333333
aF0.9990666666666668
aF1.0
aF1.0
aF0.0
aF0.0
aF0.0
aF0.0
aF0.8255666666666667
aF0.8039666666666667
aF0.9104000000000001
aF0.7575333333333333
aF0.006533333333333333
aF0.0023
aF0.0
aF0.0
aF0.12866666666666668
aF0.1794
aF0.0751
aF0.24159999999999995
aF0.006533333333333333
aF0.002533333333333333
aF0.014499999999999999
aF0.0008333333333333334
aF0.02613333333333333
aF0.0017333333333333333
aF0.0
aF0.0
aF0.006533333333333333
aF0.010066666666666666
aF0.0
aF0.0
aF0.006833333333333333
aF0.007200000000000001
aF0.0015666666666666667
aF0.016833333333333336
aF1.0
aF1.0
aF0.0
aF0.0
aF0.0
aF0.0
aF0.0
aF0.0
aF0.0
aF0.0
aF0.06896666666666666
aF0.00023333333333333333
aF0.0
aF0.0
aF0.0
aF0.0
aF0.0
aF0.0
aF0.0
aF0.0
aF0.0
aF0.0
aF0.0
aF0.0
aF0.9080333333333334
aF0.9989333333333333
aF0.011500000000000002
aF0.0006
aF0.011500000000000002
aF0.00023333333333333333
asS'com.fsecure.eicar.antivirus.test'
p29
(lp30
F0.0
aF0.0
aF0.0
aF0.0
aF0.0
aF0.0
aF0.9953
aF0.0
aF0.0047
aF0.15
aF0.0
aF0.85
aF0.186
aF0.0
aF0.814
aF0.0069
aF0.0
aF0.9931
aF0.0069
aF0.0
aF0.9931
aF1.0
aF0.0
aF0.0
aF0.0
aF1.0
aF0.0
aF0.0
aF0.0
aF0.0
aF0.0
aF0.0
aF1.0
aF1.0
aF0.0
aF0.0
aF0.2093
aF0.1628
aF0.2637
aF0.1907
aF0.7778
aF0.8571
aF0.1699
aF0.125
aF0.0
aF0.0
aF0.0
aF0.0
aF0.0
aF0.0
aF0.0
aF0.0
aF0.0
aF0.0
aF0.0
aF0.0
aF1.0
aF1.0
aF1.0
aF1.0
aF0.0
aF0.0
aF0.0
aF0.0
aF1.0
aF1.0
aF1.0
aF1.0
aF0.0
aF0.0
aF0.0
aF0.0
aF0.0
aF0.0
aF0.0
aF0.0
aF0.0
aF0.0
aF0.0
aF0.0
aF0.0
aF0.0
aF0.0
aF0.0
aF0.0
aF0.0
aF0.0
aF0.0
aF0.1395
aF0.093
aF0.0083
aF0.0144
aF1.0
aF1.0
aF0.0
aF0.0
aF0.0
aF0.0
aF0.0
aF0.0
aF0.0
aF0.0
aF0.0
aF0.0
aF1.0
aF1.0
aF0.0
aF0.0
aF0.0
aF0.0
aF0.0
aF0.0
aF0.0
aF0.0
aF0.0
aF0.0
aF0.0
aF0.0
aF0.0
aF0.0
aF0.0
aF0.0
asS'com.sanguo.daluandou.kjur'
p31
(lp32
F0.0
aF0.0
aF0.0
aF0.8051
aF0.1949
aF0.0
aF0.0
aF0.0
aF0.0
aF0.0
aF0.4
aF0.6
aF0.0
aF0.3719
aF0.6281
aF0.0
aF0.196
aF0.804
aF0.0
aF0.1969
aF0.8031
aF0.0
aF0.0
aF1.0
aF0.0
aF0.0
aF0.0
aF1.0
aF0.0
aF0.0
aF0.0
aF0.0
aF0.0
aF0.0
aF0.0
aF0.0
aF0.232
aF0.024
aF0.2516
aF0.0095
aF0.1034
aF1.0
aF0.0358
aF0.0166
aF0.0
aF0.0
aF0.0
aF0.0
aF0.0
aF0.0
aF0.0
aF0.0
aF0.0
aF0.0
aF0.0
aF0.0
aF0.9655
aF0.9821
aF1.0
aF1.0
aF0.0345
aF0.0179
aF0.0
aF0.0
aF0.6667
aF0.989
aF0.6667
aF0.6667
aF0.0
aF0.0
aF0.0
aF0.0
aF0.0
aF0.0
aF0.0
aF0.0
aF0.0
aF0.0
aF0.0
aF0.0
aF0.0
aF0.0
aF0.0
aF0.0
aF0.3333
aF0.011
aF0.3333
aF0.3333
aF0.024
aF0.008
aF0.0091
aF0.0045
aF0.0
aF0.0
aF1.0
aF1.0
aF0.0
aF0.0
aF0.0
aF0.0
aF0.0
aF0.0
aF0.0
aF0.0
aF0.0
aF0.0
aF0.0
aF0.0
aF0.0
aF0.0
aF0.0
aF0.0
aF1.0
aF1.0
aF0.0
aF0.0
aF0.0
aF0.0
aF0.0
aF0.0
aF0.0
aF0.0
asS'com.nianren.activity'
p33
(lp34
F0.0
aF0.0
aF0.0
aF0.9281
aF0.0719
aF0.0
aF0.0
aF0.0
aF0.0
aF0.0
aF0.0625
aF0.9375
aF0.0
aF0.1765
aF0.8235
aF0.0
aF0.0723
aF0.9277
aF0.0
aF0.0723
aF0.9277
aF0.0
aF0.0
aF0.0
aF0.0
aF0.0
aF0.0
aF0.0
aF0.0
aF0.0
aF0.0
aF0.0
aF0.0
aF0.0
aF0.0
aF0.0
aF0.2059
aF0.0294
aF0.1625
aF0.0181
aF0.4286
aF1.0
aF0.3312
aF0.9936
aF0.0
aF0.0
aF0.0
aF0.0
aF0.0
aF0.0
aF0.0
aF0.0
aF0.0
aF0.0
aF0.0
aF0.0
aF1.0
aF1.0
aF1.0
aF1.0
aF0.0
aF0.0
aF0.0
aF0.0
aF0.0
aF0.0
aF0.0
aF0.0
aF0.0
aF0.0
aF0.0
aF0.0
aF0.0
aF0.0
aF0.0
aF0.0
aF0.0
aF0.0
aF0.0
aF0.0
aF0.0
aF0.0
aF0.0
aF0.0
aF1.0
aF1.0
aF1.0
aF1.0
aF0.0
aF0.0
aF0.0
aF0.0
aF0.0
aF0.0
aF0.0
aF0.0
aF0.0
aF0.0
aF0.0
aF0.0
aF0.0
aF0.0
aF0.0
aF0.0
aF0.0
aF0.0
aF0.0
aF0.0
aF0.0
aF0.0
aF0.0
aF0.0
aF0.0
aF0.0
aF0.0
aF0.0
aF0.0
aF0.0
aF0.0
aF0.0
aF0.0
aF0.0
asS'com.activity.csyongbaingk'
p35
(lp36
F0.0
aF0.0005
aF0.0
aF0.8909
aF0.0996
aF0.0
aF0.0084
aF0.0005
aF0.0
aF0.0123
aF0.3951
aF0.5926
aF0.0078
aF0.4297
aF0.5625
aF0.0
aF0.1014
aF0.8986
aF0.0
aF0.1015
aF0.8985
aF0.2857
aF0.0
aF0.7143
aF0.0
aF0.8025
aF0.0
aF0.1975
aF0.0
aF0.0
aF0.0
aF0.0
aF0.0
aF0.0
aF0.0
aF0.0
aF0.1811
aF0.0302
aF0.1087
aF0.0081
aF0.2917
aF0.75
aF0.0728
aF0.2615
aF0.0
aF0.0
aF0.0
aF0.0
aF0.0
aF0.0
aF0.0
aF0.0
aF0.0
aF0.0
aF0.0
aF0.0
aF0.9583
aF0.9852
aF1.0
aF1.0
aF0.0417
aF0.0148
aF0.0
aF0.0
aF0.625
aF0.4144
aF0.8333
aF0.9961
aF0.0
aF0.0
aF0.0
aF0.0
aF0.25
aF0.3897
aF0.0
aF0.0
aF0.0
aF0.0
aF0.0
aF0.0
aF0.0
aF0.0
aF0.0
aF0.0
aF0.125
aF0.1959
aF0.1667
aF0.0039
aF0.0264
aF0.0075
aF0.0011
aF0.0011
aF0.2857
aF0.4887
aF0.2857
aF0.4887
aF0.4286
aF0.0226
aF0.0
aF0.0
aF0.0
aF0.0
aF0.0
aF0.0
aF0.5
aF0.5
aF0.0
aF0.0
aF0.0
aF0.0
aF0.0
aF0.0
aF0.0
aF0.0
aF0.0
aF0.0
aF0.5
aF0.5
aF0.0
aF0.0
aF0.0
aF0.0
asS'com.WomenGownAccessoriesIdea.Nephilim'
p37
(lp38
F0.9495
aF0.0
aF0.0
aF0.0
aF0.0
aF0.0
aF0.0458
aF0.0
aF0.0047
aF0.0201
aF0.0
aF0.9799
aF0.019
aF0.0
aF0.981
aF0.0047
aF0.0
aF0.9953
aF0.0047
aF0.0
aF0.9953
aF1.0
aF0.0
aF0.0
aF0.0
aF1.0
aF0.0
aF0.0
aF0.0
aF0.0
aF0.0
aF0.0
aF0.0
aF0.0
aF0.0
aF0.0
aF0.1073
aF0.0442
aF0.0812
aF0.0197
aF0.3529
aF0.9286
aF0.1157
aF0.7137
aF0.0
aF0.0
aF0.0
aF0.0
aF0.0
aF0.0
aF0.0
aF0.0
aF0.0
aF0.0
aF0.0
aF0.0
aF1.0
aF1.0
aF1.0
aF1.0
aF0.0
aF0.0
aF0.0
aF0.0
aF0.9286
aF0.9401
aF0.9231
aF0.9167
aF0.0
aF0.0
aF0.0
aF0.0
aF0.0714
aF0.0599
aF0.0769
aF0.0833
aF0.0
aF0.0
aF0.0
aF0.0
aF0.0
aF0.0
aF0.0
aF0.0
aF0.0
aF0.0
aF0.0
aF0.0
aF0.0063
aF0.0032
aF0.0012
aF0.0012
aF1.0
aF1.0
aF0.0
aF0.0
aF0.0
aF0.0
aF0.0
aF0.0
aF0.0
aF0.0
aF0.0
aF0.0
aF1.0
aF1.0
aF0.0
aF0.0
aF0.0
aF0.0
aF0.0
aF0.0
aF0.0
aF0.0
aF0.0
aF0.0
aF0.0
aF0.0
aF0.0
aF0.0
aF0.0
aF0.0
asS'com.LovelyBedroomDesign.JoyceBurklin'
p39
(lp40
F0.9393
aF0.0
aF0.0
aF0.0
aF0.0
aF0.0
aF0.0551
aF0.0
aF0.0056
aF0.0238
aF0.0
aF0.9762
aF0.0179
aF0.0
aF0.9821
aF0.0057
aF0.0
aF0.9943
aF0.0057
aF0.0
aF0.9943
aF0.5
aF0.0
aF0.5
aF0.0
aF0.7
aF0.0
aF0.3
aF0.0
aF0.0
aF0.0
aF0.0
aF0.0
aF0.0
aF0.0
aF0.0
aF0.1187
aF0.0801
aF0.2299
aF0.0537
aF0.25
aF0.7778
aF0.0613
aF0.5503
aF0.0
aF0.0
aF0.0
aF0.0
aF0.0
aF0.0
aF0.0
aF0.0
aF0.0
aF0.0
aF0.0
aF0.0
aF0.975
aF0.9938
aF1.0
aF1.0
aF0.025
aF0.0062
aF0.0
aF0.0
aF0.9259
aF0.9211
aF0.9524
aF0.9524
aF0.0
aF0.0
aF0.0
aF0.0
aF0.0741
aF0.0789
aF0.0476
aF0.0476
aF0.0
aF0.0
aF0.0
aF0.0
aF0.0
aF0.0
aF0.0
aF0.0
aF0.0
aF0.0
aF0.0
aF0.0
aF0.0059
aF0.003
aF0.0014
aF0.0014
aF1.0
aF1.0
aF0.0
aF0.0
aF0.0
aF0.0
aF0.0
aF0.0
aF0.0
aF0.0
aF0.0
aF0.0
aF1.0
aF1.0
aF0.0
aF0.0
aF0.0
aF0.0
aF0.0
aF0.0
aF0.0
aF0.0
aF0.0
aF0.0
aF0.0
aF0.0
aF0.0
aF0.0
aF0.0
aF0.0
asS'com.aaronbalderapps.entrancedoordesignideas'
p41
(lp42
F0.9394
aF0.0
aF0.0
aF0.0
aF0.0
aF0.0
aF0.0549
aF0.0
aF0.0056
aF0.0238
aF0.0
aF0.9762
aF0.0179
aF0.0
aF0.9821
aF0.0057
aF0.0
aF0.9943
aF0.0057
aF0.0
aF0.9943
aF0.5
aF0.0
aF0.5
aF0.0
aF0.6998
aF0.0
aF0.3002
aF0.0
aF0.0
aF0.0
aF0.0
aF0.0
aF0.0
aF0.0
aF0.0
aF0.1187
aF0.0801
aF0.2299
aF0.0537
aF0.25
aF0.7778
aF0.0613
aF0.5502
aF0.0
aF0.0
aF0.0
aF0.0
aF0.0
aF0.0
aF0.0
aF0.0
aF0.0
aF0.0
aF0.0
aF0.0
aF0.975
aF0.9938
aF1.0
aF1.0
aF0.025
aF0.0062
aF0.0
aF0.0
aF0.9259
aF0.921
aF0.9524
aF0.9523
aF0.0
aF0.0
aF0.0
aF0.0
aF0.0741
aF0.079
aF0.0476
aF0.0477
aF0.0
aF0.0
aF0.0
aF0.0
aF0.0
aF0.0
aF0.0
aF0.0
aF0.0
aF0.0
aF0.0
aF0.0
aF0.0059
aF0.003
aF0.0014
aF0.0014
aF1.0
aF1.0
aF0.0
aF0.0
aF0.0
aF0.0
aF0.0
aF0.0
aF0.0
aF0.0
aF0.0
aF0.0
aF1.0
aF1.0
aF0.0
aF0.0
aF0.0
aF0.0
aF0.0
aF0.0
aF0.0
aF0.0
aF0.0
aF0.0
aF0.0
aF0.0
aF0.0
aF0.0
aF0.0
aF0.0
asS'com.WomensUnderwearType.JohnKazmierczak'
p43
(lp44
F0.9393
aF0.0
aF0.0
aF0.0
aF0.0
aF0.0
aF0.0551
aF0.0
aF0.0056
aF0.0238
aF0.0
aF0.9762
aF0.0179
aF0.0
aF0.9821
aF0.0057
aF0.0
aF0.9943
aF0.0057
aF0.0
aF0.9943
aF0.5
aF0.0
aF0.5
aF0.0
aF0.7
aF0.0
aF0.3
aF0.0
aF0.0
aF0.0
aF0.0
aF0.0
aF0.0
aF0.0
aF0.0
aF0.1187
aF0.0801
aF0.2299
aF0.0537
aF0.25
aF0.7778
aF0.0613
aF0.5501
aF0.0
aF0.0
aF0.0
aF0.0
aF0.0
aF0.0
aF0.0
aF0.0
aF0.0
aF0.0
aF0.0
aF0.0
aF0.975
aF0.9938
aF1.0
aF1.0
aF0.025
aF0.0062
aF0.0
aF0.0
aF0.9259
aF0.9211
aF0.9524
aF0.9524
aF0.0
aF0.0
aF0.0
aF0.0
aF0.0741
aF0.0789
aF0.0476
aF0.0476
aF0.0
aF0.0
aF0.0
aF0.0
aF0.0
aF0.0
aF0.0
aF0.0
aF0.0
aF0.0
aF0.0
aF0.0
aF0.0059
aF0.003
aF0.0014
aF0.0014
aF1.0
aF1.0
aF0.0
aF0.0
aF0.0
aF0.0
aF0.0
aF0.0
aF0.0
aF0.0
aF0.0
aF0.0
aF1.0
aF1.0
aF0.0
aF0.0
aF0.0
aF0.0
aF0.0
aF0.0
aF0.0
aF0.0
aF0.0
aF0.0
aF0.0
aF0.0
aF0.0
aF0.0
aF0.0
aF0.0
asS'com.DIYcrochetScarf.JoyceBurklin'
p45
(lp46
F0.9393
aF0.0
aF0.0
aF0.0
aF0.0
aF0.0
aF0.0551
aF0.0
aF0.0056
aF0.0238
aF0.0
aF0.9762
aF0.0179
aF0.0
aF0.9821
aF0.0057
aF0.0
aF0.9943
aF0.0057
aF0.0
aF0.9943
aF0.5
aF0.0
aF0.5
aF0.0
aF0.7
aF0.0
aF0.3
aF0.0
aF0.0
aF0.0
aF0.0
aF0.0
aF0.0
aF0.0
aF0.0
aF0.1187
aF0.0801
aF0.2298
aF0.0538
aF0.25
aF0.7778
aF0.0612
aF0.5496
aF0.0
aF0.0
aF0.0
aF0.0
aF0.0
aF0.0
aF0.0
aF0.0
aF0.0
aF0.0
aF0.0
aF0.0
aF0.975
aF0.9938
aF1.0
aF1.0
aF0.025
aF0.0062
aF0.0
aF0.0
aF0.9259
aF0.9211
aF0.9524
aF0.9524
aF0.0
aF0.0
aF0.0
aF0.0
aF0.0741
aF0.0789
aF0.0476
aF0.0476
aF0.0
aF0.0
aF0.0
aF0.0
aF0.0
aF0.0
aF0.0
aF0.0
aF0.0
aF0.0
aF0.0
aF0.0
aF0.0059
aF0.003
aF0.0014
aF0.0014
aF1.0
aF1.0
aF0.0
aF0.0
aF0.0
aF0.0
aF0.0
aF0.0
aF0.0
aF0.0
aF0.0
aF0.0
aF1.0
aF1.0
aF0.0
aF0.0
aF0.0
aF0.0
aF0.0
aF0.0
aF0.0
aF0.0
aF0.0
aF0.0
aF0.0
aF0.0
aF0.0
aF0.0
aF0.0
aF0.0
asS'com.arroyaapps.aquariumdecorationideas'
p47
(lp48
F0.9393
aF0.0
aF0.0
aF0.0
aF0.0
aF0.0
aF0.0551
aF0.0
aF0.0056
aF0.0238
aF0.0
aF0.9762
aF0.0179
aF0.0
aF0.9821
aF0.0057
aF0.0
aF0.9943
aF0.0057
aF0.0
aF0.9943
aF0.5
aF0.0
aF0.5
aF0.0
aF0.7
aF0.0
aF0.3
aF0.0
aF0.0
aF0.0
aF0.0
aF0.0
aF0.0
aF0.0
aF0.0
aF0.1187
aF0.0801
aF0.2299
aF0.0538
aF0.25
aF0.7778
aF0.0612
aF0.5498
aF0.0
aF0.0
aF0.0
aF0.0
aF0.0
aF0.0
aF0.0
aF0.0
aF0.0
aF0.0
aF0.0
aF0.0
aF0.975
aF0.9938
aF1.0
aF1.0
aF0.025
aF0.0062
aF0.0
aF0.0
aF0.9259
aF0.9211
aF0.9524
aF0.9524
aF0.0
aF0.0
aF0.0
aF0.0
aF0.0741
aF0.0789
aF0.0476
aF0.0476
aF0.0
aF0.0
aF0.0
aF0.0
aF0.0
aF0.0
aF0.0
aF0.0
aF0.0
aF0.0
aF0.0
aF0.0
aF0.0059
aF0.003
aF0.0014
aF0.0014
aF1.0
aF1.0
aF0.0
aF0.0
aF0.0
aF0.0
aF0.0
aF0.0
aF0.0
aF0.0
aF0.0
aF0.0
aF1.0
aF1.0
aF0.0
aF0.0
aF0.0
aF0.0
aF0.0
aF0.0
aF0.0
aF0.0
aF0.0
aF0.0
aF0.0
aF0.0
aF0.0
aF0.0
aF0.0
aF0.0
asS'com.arroyaapps.crochetslipperstutorial'
p49
(lp50
F0.9384
aF0.0
aF0.0
aF0.0
aF0.0
aF0.0
aF0.0559
aF0.0
aF0.0057
aF0.0238
aF0.0
aF0.9762
aF0.0179
aF0.0
aF0.9821
aF0.0058
aF0.0
aF0.9942
aF0.0058
aF0.0
aF0.9942
aF0.5
aF0.0
aF0.5
aF0.0
aF0.7
aF0.0
aF0.3
aF0.0
aF0.0
aF0.0
aF0.0
aF0.0
aF0.0
aF0.0
aF0.0
aF0.119
aF0.0804
aF0.2318
aF0.0545
aF0.25
aF0.7778
aF0.0616
aF0.5502
aF0.0
aF0.0
aF0.0
aF0.0
aF0.0
aF0.0
aF0.0
aF0.0
aF0.0
aF0.0
aF0.0
aF0.0
aF0.975
aF0.9938
aF1.0
aF1.0
aF0.025
aF0.0062
aF0.0
aF0.0
aF0.9259
aF0.9211
aF0.9524
aF0.9524
aF0.0
aF0.0
aF0.0
aF0.0
aF0.0741
aF0.0789
aF0.0476
aF0.0476
aF0.0
aF0.0
aF0.0
aF0.0
aF0.0
aF0.0
aF0.0
aF0.0
aF0.0
aF0.0
aF0.0
aF0.0
aF0.006
aF0.003
aF0.0014
aF0.0014
aF1.0
aF1.0
aF0.0
aF0.0
aF0.0
aF0.0
aF0.0
aF0.0
aF0.0
aF0.0
aF0.0
aF0.0
aF1.0
aF1.0
aF0.0
aF0.0
aF0.0
aF0.0
aF0.0
aF0.0
aF0.0
aF0.0
aF0.0
aF0.0
aF0.0
aF0.0
aF0.0
aF0.0
aF0.0
aF0.0
asS'com.mozgame.amazingcandy'
p51
(lp52
F0.0
aF0.0
aF0.0
aF0.71705
aF0.28295
aF0.0
aF0.0
aF0.0
aF0.0
aF0.0
aF0.375
aF0.625
aF0.0
aF0.5015000000000001
aF0.4985
aF0.0
aF0.283675
aF0.716325
aF0.0
aF0.285875
aF0.7141249999999999
aF0.0
aF0.0
aF0.0
aF0.0
aF0.0
aF0.0
aF0.0
aF0.0
aF0.0
aF0.0
aF0.0
aF0.0
aF0.0
aF0.0
aF0.0
aF0.120125
aF0.0
aF0.13355
aF0.0
aF0.0
aF0.0
aF0.0
aF0.0
aF0.0
aF0.0
aF0.0
aF0.0
aF0.0
aF0.0
aF0.0
aF0.0
aF0.0
aF0.0
aF0.0
aF0.0
aF1.0
aF1.0
aF0.0
aF0.0
aF0.0
aF0.0
aF0.0
aF0.0
aF0.0
aF0.0
aF0.0
aF0.0
aF0.0
aF0.0
aF0.0
aF0.0
aF0.0
aF0.0
aF0.0
aF0.0
aF0.0
aF0.0
aF0.0
aF0.0
aF0.0
aF0.0
aF0.0
aF0.0
aF0.0
aF0.0
aF0.0
aF0.0
aF0.024024999999999998
aF0.011975
aF0.007825
aF0.00775
aF0.0
aF0.0
aF1.0
aF1.0
aF0.0
aF0.0
aF0.0
aF0.0
aF0.0
aF0.0
aF0.0
aF0.0
aF0.0
aF0.0
aF0.0
aF0.0
aF0.0
aF0.0
aF0.0
aF0.0
aF1.0
aF1.0
aF0.0
aF0.0
aF0.0
aF0.0
aF0.0
aF0.0
aF0.0
aF0.0
asS'com.TrendyHairstyleForMen.JohnKazmierczak'
p53
(lp54
F0.9393
aF0.0
aF0.0
aF0.0
aF0.0
aF0.0
aF0.0551
aF0.0
aF0.0056
aF0.0238
aF0.0
aF0.9762
aF0.0179
aF0.0
aF0.9821
aF0.0057
aF0.0
aF0.9943
aF0.0057
aF0.0
aF0.9943
aF0.5
aF0.0
aF0.5
aF0.0
aF0.7
aF0.0
aF0.3
aF0.0
aF0.0
aF0.0
aF0.0
aF0.0
aF0.0
aF0.0
aF0.0
aF0.1187
aF0.0801
aF0.2299
aF0.0538
aF0.25
aF0.7778
aF0.0613
aF0.55
aF0.0
aF0.0
aF0.0
aF0.0
aF0.0
aF0.0
aF0.0
aF0.0
aF0.0
aF0.0
aF0.0
aF0.0
aF0.975
aF0.9938
aF1.0
aF1.0
aF0.025
aF0.0062
aF0.0
aF0.0
aF0.9259
aF0.9211
aF0.9524
aF0.9524
aF0.0
aF0.0
aF0.0
aF0.0
aF0.0741
aF0.0789
aF0.0476
aF0.0476
aF0.0
aF0.0
aF0.0
aF0.0
aF0.0
aF0.0
aF0.0
aF0.0
aF0.0
aF0.0
aF0.0
aF0.0
aF0.0059
aF0.003
aF0.0014
aF0.0014
aF1.0
aF1.0
aF0.0
aF0.0
aF0.0
aF0.0
aF0.0
aF0.0
aF0.0
aF0.0
aF0.0
aF0.0
aF1.0
aF1.0
aF0.0
aF0.0
aF0.0
aF0.0
aF0.0
aF0.0
aF0.0
aF0.0
aF0.0
aF0.0
aF0.0
aF0.0
aF0.0
aF0.0
aF0.0
aF0.0
asS'com.aaronbalderapps.boxplanterideas'
p55
(lp56
F0.9384
aF0.0
aF0.0
aF0.0
aF0.0
aF0.0
aF0.0559
aF0.0
aF0.0057
aF0.0238
aF0.0
aF0.9762
aF0.0179
aF0.0
aF0.9821
aF0.0058
aF0.0
aF0.9942
aF0.0058
aF0.0
aF0.9942
aF0.5
aF0.0
aF0.5
aF0.0
aF0.7
aF0.0
aF0.3
aF0.0
aF0.0
aF0.0
aF0.0
aF0.0
aF0.0
aF0.0
aF0.0
aF0.119
aF0.0804
aF0.2318
aF0.0545
aF0.25
aF0.7778
aF0.0616
aF0.5505
aF0.0
aF0.0
aF0.0
aF0.0
aF0.0
aF0.0
aF0.0
aF0.0
aF0.0
aF0.0
aF0.0
aF0.0
aF0.975
aF0.9938
aF1.0
aF1.0
aF0.025
aF0.0062
aF0.0
aF0.0
aF0.9259
aF0.9211
aF0.9524
aF0.9524
aF0.0
aF0.0
aF0.0
aF0.0
aF0.0741
aF0.0789
aF0.0476
aF0.0476
aF0.0
aF0.0
aF0.0
aF0.0
aF0.0
aF0.0
aF0.0
aF0.0
aF0.0
aF0.0
aF0.0
aF0.0
aF0.006
aF0.003
aF0.0014
aF0.0014
aF1.0
aF1.0
aF0.0
aF0.0
aF0.0
aF0.0
aF0.0
aF0.0
aF0.0
aF0.0
aF0.0
aF0.0
aF1.0
aF1.0
aF0.0
aF0.0
aF0.0
aF0.0
aF0.0
aF0.0
aF0.0
aF0.0
aF0.0
aF0.0
aF0.0
aF0.0
aF0.0
aF0.0
aF0.0
aF0.0
asS'activity.css.sdker.wer'
p57
(lp58
F0.0
aF0.0005
aF0.0
aF0.8836
aF0.1064
aF0.0
aF0.0084
aF0.001
aF0.0
aF0.0122
aF0.4024
aF0.5854
aF0.0079
aF0.4286
aF0.5635
aF0.0
aF0.1087
aF0.8913
aF0.0
aF0.1088
aF0.8912
aF0.4
aF0.2
aF0.4
aF0.0
aF0.4484
aF0.4509
aF0.1007
aF0.0
aF0.0
aF0.0
aF1.0
aF0.0
aF0.0
aF0.0
aF0.0
aF0.166
aF0.0347
aF0.1019
aF0.0086
aF0.2791
aF0.5556
aF0.0716
aF0.3658
aF0.0
aF0.0
aF0.0
aF0.0
aF0.0
aF0.0
aF0.0
aF0.0
aF0.0
aF0.0
aF0.0
aF0.0
aF0.9535
aF0.9845
aF1.0
aF1.0
aF0.0465
aF0.0155
aF0.0
aF0.0
aF0.6667
aF0.4488
aF1.0
aF1.0
aF0.0
aF0.0
aF0.0
aF0.0
aF0.2222
aF0.3668
aF0.0
aF0.0
aF0.0
aF0.0
aF0.0
aF0.0
aF0.0
aF0.0
aF0.0
aF0.0
aF0.1111
aF0.1844
aF0.0
aF0.0
aF0.0154
aF0.0077
aF0.0011
aF0.0011
aF0.5
aF0.5
aF0.5
aF0.5
aF0.0
aF0.0
aF0.0
aF0.0
aF0.0
aF0.0
aF0.0
aF0.0
aF0.5
aF0.5
aF0.0
aF0.0
aF0.0
aF0.0
aF0.0
aF0.0
aF0.0
aF0.0
aF0.0
aF0.0
aF0.5
aF0.5
aF0.0
aF0.0
aF0.0
aF0.0
asS'com.joyinn.zhuaniqiufgrrrr'
p59
(lp60
F0.0
aF0.0
aF0.0
aF0.9504
aF0.0496
aF0.0
aF0.0
aF0.0
aF0.0
aF0.0
aF0.32
aF0.68
aF0.0
aF0.3082
aF0.6918
aF0.0
aF0.05
aF0.95
aF0.0
aF0.05
aF0.95
aF0.0
aF0.0
aF1.0
aF0.0
aF0.0
aF0.0
aF1.0
aF0.0
aF0.0
aF0.0
aF0.0
aF0.0
aF0.0
aF0.0
aF0.0
aF0.2053
aF0.0331
aF0.0562
aF0.0056
aF0.3548
aF1.0
aF0.1583
aF0.2947
aF0.0
aF0.0
aF0.0
aF0.0
aF0.0
aF0.0
aF0.0
aF0.0
aF0.0
aF0.0
aF0.0
aF0.0
aF0.9677
aF0.9855
aF1.0
aF1.0
aF0.0323
aF0.0145
aF0.0
aF0.0
aF0.8
aF0.8519
aF0.8
aF0.9945
aF0.0
aF0.0
aF0.0
aF0.0
aF0.0
aF0.0
aF0.0
aF0.0
aF0.0
aF0.0
aF0.0
aF0.0
aF0.0
aF0.0
aF0.0
aF0.0
aF0.2
aF0.1481
aF0.2
aF0.0055
aF0.0132
aF0.0066
aF0.0008
aF0.0008
aF0.0
aF0.0
aF1.0
aF1.0
aF0.0
aF0.0
aF0.0
aF0.0
aF0.0
aF0.0
aF0.0
aF0.0
aF1.0
aF1.0
aF0.0
aF0.0
aF0.0
aF0.0
aF0.0
aF0.0
aF0.0
aF0.0
aF0.0
aF0.0
aF0.0
aF0.0
aF0.0
aF0.0
aF0.0
aF0.0
asS'activity.css.sker.wer'
p61
(lp62
F0.0
aF0.0005
aF0.0
aF0.8838
aF0.1063
aF0.0
aF0.0084
aF0.001
aF0.0
aF0.0122
aF0.4024
aF0.5854
aF0.0079
aF0.4286
aF0.5635
aF0.0
aF0.1085
aF0.8915
aF0.0
aF0.1086
aF0.8914
aF0.4
aF0.2
aF0.4
aF0.0
aF0.4486
aF0.4508
aF0.1006
aF0.0
aF0.0
aF0.0
aF1.0
aF0.0
aF0.0
aF0.0
aF0.0
aF0.166
aF0.0347
aF0.1019
aF0.0086
aF0.2791
aF0.5556
aF0.0717
aF0.3666
aF0.0
aF0.0
aF0.0
aF0.0
aF0.0
aF0.0
aF0.0
aF0.0
aF0.0
aF0.0
aF0.0
aF0.0
aF0.9535
aF0.9845
aF1.0
aF1.0
aF0.0465
aF0.0155
aF0.0
aF0.0
aF0.6667
aF0.4478
aF1.0
aF1.0
aF0.0
aF0.0
aF0.0
aF0.0
aF0.2222
aF0.3675
aF0.0
aF0.0
aF0.0
aF0.0
aF0.0
aF0.0
aF0.0
aF0.0
aF0.0
aF0.0
aF0.1111
aF0.1847
aF0.0
aF0.0
aF0.0154
aF0.0077
aF0.0011
aF0.0011
aF0.5
aF0.5
aF0.5
aF0.5
aF0.0
aF0.0
aF0.0
aF0.0
aF0.0
aF0.0
aF0.0
aF0.0
aF0.5
aF0.5
aF0.0
aF0.0
aF0.0
aF0.0
aF0.0
aF0.0
aF0.0
aF0.0
aF0.0
aF0.0
aF0.5
aF0.5
aF0.0
aF0.0
aF0.0
aF0.0
asS'com.arroyaapps.stairriserdecoratingideas'
p63
(lp64
F0.9384
aF0.0
aF0.0
aF0.0
aF0.0
aF0.0
aF0.0559
aF0.0
aF0.0057
aF0.0238
aF0.0
aF0.9762
aF0.0179
aF0.0
aF0.9821
aF0.0058
aF0.0
aF0.9942
aF0.0058
aF0.0
aF0.9942
aF0.5
aF0.0
aF0.5
aF0.0
aF0.7
aF0.0
aF0.3
aF0.0
aF0.0
aF0.0
aF0.0
aF0.0
aF0.0
aF0.0
aF0.0
aF0.119
aF0.0804
aF0.2318
aF0.0545
aF0.25
aF0.7778
aF0.0616
aF0.5501
aF0.0
aF0.0
aF0.0
aF0.0
aF0.0
aF0.0
aF0.0
aF0.0
aF0.0
aF0.0
aF0.0
aF0.0
aF0.975
aF0.9938
aF1.0
aF1.0
aF0.025
aF0.0062
aF0.0
aF0.0
aF0.9259
aF0.9211
aF0.9524
aF0.9524
aF0.0
aF0.0
aF0.0
aF0.0
aF0.0741
aF0.0789
aF0.0476
aF0.0476
aF0.0
aF0.0
aF0.0
aF0.0
aF0.0
aF0.0
aF0.0
aF0.0
aF0.0
aF0.0
aF0.0
aF0.0
aF0.006
aF0.003
aF0.0014
aF0.0014
aF1.0
aF1.0
aF0.0
aF0.0
aF0.0
aF0.0
aF0.0
aF0.0
aF0.0
aF0.0
aF0.0
aF0.0
aF1.0
aF1.0
aF0.0
aF0.0
aF0.0
aF0.0
aF0.0
aF0.0
aF0.0
aF0.0
aF0.0
aF0.0
aF0.0
aF0.0
aF0.0
aF0.0
aF0.0
aF0.0
asS'com.TartCakeDesignCollection.heidismith'
p65
(lp66
F0.9393
aF0.0
aF0.0
aF0.0
aF0.0
aF0.0
aF0.0551
aF0.0
aF0.0056
aF0.0238
aF0.0
aF0.9762
aF0.0179
aF0.0
aF0.9821
aF0.0057
aF0.0
aF0.9943
aF0.0057
aF0.0
aF0.9943
aF0.5
aF0.0
aF0.5
aF0.0
aF0.7
aF0.0
aF0.3
aF0.0
aF0.0
aF0.0
aF0.0
aF0.0
aF0.0
aF0.0
aF0.0
aF0.1187
aF0.0801
aF0.2299
aF0.0538
aF0.25
aF0.7778
aF0.0612
aF0.5497
aF0.0
aF0.0
aF0.0
aF0.0
aF0.0
aF0.0
aF0.0
aF0.0
aF0.0
aF0.0
aF0.0
aF0.0
aF0.975
aF0.9938
aF1.0
aF1.0
aF0.025
aF0.0062
aF0.0
aF0.0
aF0.9259
aF0.9211
aF0.9524
aF0.9524
aF0.0
aF0.0
aF0.0
aF0.0
aF0.0741
aF0.0789
aF0.0476
aF0.0476
aF0.0
aF0.0
aF0.0
aF0.0
aF0.0
aF0.0
aF0.0
aF0.0
aF0.0
aF0.0
aF0.0
aF0.0
aF0.0059
aF0.003
aF0.0014
aF0.0014
aF1.0
aF1.0
aF0.0
aF0.0
aF0.0
aF0.0
aF0.0
aF0.0
aF0.0
aF0.0
aF0.0
aF0.0
aF1.0
aF1.0
aF0.0
aF0.0
aF0.0
aF0.0
aF0.0
aF0.0
aF0.0
aF0.0
aF0.0
aF0.0
aF0.0
aF0.0
aF0.0
aF0.0
aF0.0
aF0.0
asS'com.HairTieIdeasTutorial.Nephilim'
p67
(lp68
F0.9496
aF0.0
aF0.0
aF0.0
aF0.0
aF0.0
aF0.0457
aF0.0
aF0.0047
aF0.0201
aF0.0
aF0.9799
aF0.019
aF0.0
aF0.981
aF0.0047
aF0.0
aF0.9953
aF0.0047
aF0.0
aF0.9953
aF1.0
aF0.0
aF0.0
aF0.0
aF1.0
aF0.0
aF0.0
aF0.0
aF0.0
aF0.0
aF0.0
aF0.0
aF0.0
aF0.0
aF0.0
aF0.1073
aF0.0442
aF0.0811
aF0.0197
aF0.3529
aF0.9286
aF0.1157
aF0.714
aF0.0
aF0.0
aF0.0
aF0.0
aF0.0
aF0.0
aF0.0
aF0.0
aF0.0
aF0.0
aF0.0
aF0.0
aF1.0
aF1.0
aF1.0
aF1.0
aF0.0
aF0.0
aF0.0
aF0.0
aF0.9286
aF0.9402
aF0.9231
aF0.9167
aF0.0
aF0.0
aF0.0
aF0.0
aF0.0714
aF0.0598
aF0.0769
aF0.0833
aF0.0
aF0.0
aF0.0
aF0.0
aF0.0
aF0.0
aF0.0
aF0.0
aF0.0
aF0.0
aF0.0
aF0.0
aF0.0063
aF0.0032
aF0.0012
aF0.0012
aF1.0
aF1.0
aF0.0
aF0.0
aF0.0
aF0.0
aF0.0
aF0.0
aF0.0
aF0.0
aF0.0
aF0.0
aF1.0
aF1.0
aF0.0
aF0.0
aF0.0
aF0.0
aF0.0
aF0.0
aF0.0
aF0.0
aF0.0
aF0.0
aF0.0
aF0.0
aF0.0
aF0.0
aF0.0
aF0.0
asS'com.RomanticBedroomDesign.heidismith'
p69
(lp70
F0.9393
aF0.0
aF0.0
aF0.0
aF0.0
aF0.0
aF0.0551
aF0.0
aF0.0056
aF0.0238
aF0.0
aF0.9762
aF0.0179
aF0.0
aF0.9821
aF0.0057
aF0.0
aF0.9943
aF0.0057
aF0.0
aF0.9943
aF0.5
aF0.0
aF0.5
aF0.0
aF0.7
aF0.0
aF0.3
aF0.0
aF0.0
aF0.0
aF0.0
aF0.0
aF0.0
aF0.0
aF0.0
aF0.1187
aF0.0801
aF0.2299
aF0.0537
aF0.25
aF0.7778
aF0.0613
aF0.5501
aF0.0
aF0.0
aF0.0
aF0.0
aF0.0
aF0.0
aF0.0
aF0.0
aF0.0
aF0.0
aF0.0
aF0.0
aF0.975
aF0.9938
aF1.0
aF1.0
aF0.025
aF0.0062
aF0.0
aF0.0
aF0.9259
aF0.9211
aF0.9524
aF0.9524
aF0.0
aF0.0
aF0.0
aF0.0
aF0.0741
aF0.0789
aF0.0476
aF0.0476
aF0.0
aF0.0
aF0.0
aF0.0
aF0.0
aF0.0
aF0.0
aF0.0
aF0.0
aF0.0
aF0.0
aF0.0
aF0.0059
aF0.003
aF0.0014
aF0.0014
aF1.0
aF1.0
aF0.0
aF0.0
aF0.0
aF0.0
aF0.0
aF0.0
aF0.0
aF0.0
aF0.0
aF0.0
aF1.0
aF1.0
aF0.0
aF0.0
aF0.0
aF0.0
aF0.0
aF0.0
aF0.0
aF0.0
aF0.0
aF0.0
aF0.0
aF0.0
aF0.0
aF0.0
aF0.0
aF0.0
asS'com.BridesmaidDressIdeaGallery.Nephilim'
p71
(lp72
F0.9494
aF0.0
aF0.0
aF0.0
aF0.0
aF0.0
aF0.0459
aF0.0
aF0.0047
aF0.0201
aF0.0
aF0.9799
aF0.019
aF0.0
aF0.981
aF0.0047
aF0.0
aF0.9953
aF0.0048
aF0.0
aF0.9952
aF1.0
aF0.0
aF0.0
aF0.0
aF1.0
aF0.0
aF0.0
aF0.0
aF0.0
aF0.0
aF0.0
aF0.0
aF0.0
aF0.0
aF0.0
aF0.1073
aF0.0442
aF0.0808
aF0.0196
aF0.3529
aF0.9286
aF0.1167
aF0.7178
aF0.0
aF0.0
aF0.0
aF0.0
aF0.0
aF0.0
aF0.0
aF0.0
aF0.0
aF0.0
aF0.0
aF0.0
aF1.0
aF1.0
aF1.0
aF1.0
aF0.0
aF0.0
aF0.0
aF0.0
aF0.9286
aF0.9397
aF0.9231
aF0.9167
aF0.0
aF0.0
aF0.0
aF0.0
aF0.0714
aF0.0603
aF0.0769
aF0.0833
aF0.0
aF0.0
aF0.0
aF0.0
aF0.0
aF0.0
aF0.0
aF0.0
aF0.0
aF0.0
aF0.0
aF0.0
aF0.0063
aF0.0032
aF0.0012
aF0.0012
aF1.0
aF1.0
aF0.0
aF0.0
aF0.0
aF0.0
aF0.0
aF0.0
aF0.0
aF0.0
aF0.0
aF0.0
aF1.0
aF1.0
aF0.0
aF0.0
aF0.0
aF0.0
aF0.0
aF0.0
aF0.0
aF0.0
aF0.0
aF0.0
aF0.0
aF0.0
aF0.0
aF0.0
aF0.0
aF0.0
asS'com.blood.zombies.sdfgyed'
p73
(lp74
F0.0
aF0.0
aF0.0
aF0.9384
aF0.0616
aF0.0
aF0.0
aF0.0
aF0.0
aF0.0
aF0.3692
aF0.6308
aF0.0
aF0.3596
aF0.6404
aF0.0
aF0.0895
aF0.9105
aF0.0
aF0.0896
aF0.9104
aF0.5
aF0.0
aF0.5
aF0.0
aF0.4444
aF0.0
aF0.5556
aF0.0
aF0.0
aF0.0
aF0.0
aF0.0
aF0.0
aF0.0
aF0.0
aF0.2308
aF0.0275
aF0.0782
aF0.0241
aF0.2619
aF1.0
aF0.0805
aF0.1087
aF0.0
aF0.0
aF0.0
aF0.0
aF0.0
aF0.0
aF0.0
aF0.0
aF0.0
aF0.0
aF0.0
aF0.0
aF0.9762
aF0.9866
aF1.0
aF1.0
aF0.0238
aF0.0134
aF0.0
aF0.0
aF0.8
aF0.9348
aF0.8
aF0.8
aF0.0
aF0.0
aF0.0
aF0.0
aF0.0
aF0.0
aF0.0
aF0.0
aF0.0
aF0.0
aF0.0
aF0.0
aF0.0
aF0.0
aF0.0
aF0.0
aF0.2
aF0.0652
aF0.2
aF0.2
aF0.0165
aF0.0055
aF0.0026
aF0.001
aF0.0
aF0.0
aF1.0
aF1.0
aF0.0
aF0.0
aF0.0
aF0.0
aF0.0
aF0.0
aF0.0
aF0.0
aF0.0
aF0.0
aF0.0
aF0.0
aF0.0
aF0.0
aF0.0
aF0.0
aF1.0
aF1.0
aF0.0
aF0.0
aF0.0
aF0.0
aF0.0
aF0.0
aF0.0
aF0.0
asS'com.WomenHairBunDesign.Nephilim'
p75
(lp76
F0.9496
aF0.0
aF0.0
aF0.0
aF0.0
aF0.0
aF0.0457
aF0.0
aF0.0047
aF0.0185
aF0.0
aF0.9815
aF0.0166
aF0.0
aF0.9834
aF0.0047
aF0.0
aF0.9953
aF0.0047
aF0.0
aF0.9953
aF1.0
aF0.0
aF0.0
aF0.0
aF1.0
aF0.0
aF0.0
aF0.0
aF0.0
aF0.0
aF0.0
aF0.0
aF0.0
aF0.0
aF0.0
aF0.0967
aF0.0387
aF0.0822
aF0.0196
aF0.3429
aF0.9286
aF0.1142
aF0.7178
aF0.0
aF0.0
aF0.0
aF0.0
aF0.0
aF0.0
aF0.0
aF0.0
aF0.0
aF0.0
aF0.0
aF0.0
aF1.0
aF1.0
aF1.0
aF1.0
aF0.0
aF0.0
aF0.0
aF0.0
aF0.9286
aF0.9399
aF0.9231
aF0.9167
aF0.0
aF0.0
aF0.0
aF0.0
aF0.0714
aF0.0601
aF0.0769
aF0.0833
aF0.0
aF0.0
aF0.0
aF0.0
aF0.0
aF0.0
aF0.0
aF0.0
aF0.0
aF0.0
aF0.0
aF0.0
aF0.0055
aF0.0028
aF0.0012
aF0.0012
aF1.0
aF1.0
aF0.0
aF0.0
aF0.0
aF0.0
aF0.0
aF0.0
aF0.0
aF0.0
aF0.0
aF0.0
aF1.0
aF1.0
aF0.0
aF0.0
aF0.0
aF0.0
aF0.0
aF0.0
aF0.0
aF0.0
aF0.0
aF0.0
aF0.0
aF0.0
aF0.0
aF0.0
aF0.0
aF0.0
asS'com.ayans.mathformula'
p77
(lp78
F0.9818
aF0.0001
aF0.0011
aF0.0108
aF0.0012
aF0.0
aF0.0044
aF0.0003
aF0.0004
aF0.0194
aF0.0081
aF0.9725
aF0.0099
aF0.0056
aF0.9845
aF0.0015
aF0.0016
aF0.9969
aF0.0015
aF0.0016
aF0.9969
aF0.875
aF0.0
aF0.125
aF0.0
aF0.9981
aF0.0
aF0.0019
aF0.0
aF0.8667
aF0.0
aF0.0
aF0.1333
aF0.0
aF0.8667
aF0.0
aF0.0876
aF0.0227
aF0.218
aF0.0105
aF0.1814
aF0.4717
aF0.0161
aF0.3377
aF0.0
aF0.0
aF0.0
aF0.0
aF0.0
aF0.0
aF0.0
aF0.0
aF0.0
aF0.0
aF0.0
aF0.0
aF0.9951
aF0.9997
aF1.0
aF1.0
aF0.0049
aF0.0003
aF0.0
aF0.0
aF0.8113
aF0.8295
aF0.88
aF0.9306
aF0.0189
aF0.0187
aF0.0
aF0.0
aF0.0377
aF0.0614
aF0.04
aF0.0596
aF0.0189
aF0.0122
aF0.04
aF0.0088
aF0.0943
aF0.0075
aF0.04
aF0.001
aF0.0189
aF0.0707
aF0.0
aF0.0
aF0.0116
aF0.0137
aF0.0015
aF0.0098
aF1.0
aF1.0
aF0.0
aF0.0
aF0.0
aF0.0
aF0.0
aF0.0
aF0.0
aF0.0
aF0.0
aF0.0
aF0.0
aF0.0
aF0.0
aF0.0
aF0.0
aF0.0
aF0.0
aF0.0
aF0.0
aF0.0
aF0.0
aF0.0
aF1.0
aF1.0
aF0.0
aF0.0
aF0.0
aF0.0
asS'wb.gc.xmxx.zxb.xm'
p79
(lp80
F0.0
aF0.0
aF0.0
aF0.7892
aF0.2108
aF0.0
aF0.0
aF0.0
aF0.0
aF0.0
aF0.5556
aF0.4444
aF0.0
aF0.6129
aF0.3871
aF0.0
aF0.2119
aF0.7881
aF0.0
aF0.2119
aF0.7881
aF0.0
aF0.0
aF0.0
aF0.0
aF0.0
aF0.0
aF0.0
aF0.0
aF0.0
aF0.0
aF0.0
aF0.0
aF0.0
aF0.0
aF0.0
aF0.0968
aF0.0161
aF0.0784
aF0.0121
aF0.0
aF0.0
aF0.0
aF0.0
aF0.0
aF0.0
aF0.0
aF0.0
aF0.0
aF0.0
aF0.0
aF0.0
aF0.0
aF0.0
aF0.0
aF0.0
aF0.8333
aF0.8461
aF0.0
aF0.0
aF0.1667
aF0.1539
aF0.0
aF0.0
aF0.0
aF0.0
aF0.0
aF0.0
aF0.0
aF0.0
aF0.0
aF0.0
aF0.0
aF0.0
aF0.0
aF0.0
aF0.0
aF0.0
aF0.0
aF0.0
aF0.0
aF0.0
aF0.0
aF0.0
aF1.0
aF1.0
aF0.0
aF0.0
aF0.0
aF0.0
aF0.0
aF0.0
aF0.0
aF0.0
aF0.0
aF0.0
aF0.0
aF0.0
aF0.0
aF0.0
aF0.0
aF0.0
aF0.0
aF0.0
aF0.0
aF0.0
aF0.0
aF0.0
aF0.0
aF0.0
aF0.0
aF0.0
aF0.0
aF0.0
aF0.0
aF0.0
aF0.0
aF0.0
aF0.0
aF0.0
aF0.0
aF0.0
asS'com.arroyaapps.porchdecoratingideas'
p81
(lp82
F0.9384
aF0.0
aF0.0
aF0.0
aF0.0
aF0.0
aF0.0559
aF0.0
aF0.0057
aF0.0238
aF0.0
aF0.9762
aF0.0179
aF0.0
aF0.9821
aF0.0058
aF0.0
aF0.9942
aF0.0058
aF0.0
aF0.9942
aF0.5
aF0.0
aF0.5
aF0.0
aF0.7
aF0.0
aF0.3
aF0.0
aF0.0
aF0.0
aF0.0
aF0.0
aF0.0
aF0.0
aF0.0
aF0.119
aF0.0804
aF0.2317
aF0.0545
aF0.25
aF0.7778
aF0.0616
aF0.5499
aF0.0
aF0.0
aF0.0
aF0.0
aF0.0
aF0.0
aF0.0
aF0.0
aF0.0
aF0.0
aF0.0
aF0.0
aF0.975
aF0.9938
aF1.0
aF1.0
aF0.025
aF0.0062
aF0.0
aF0.0
aF0.9259
aF0.9211
aF0.9524
aF0.9524
aF0.0
aF0.0
aF0.0
aF0.0
aF0.0741
aF0.0789
aF0.0476
aF0.0476
aF0.0
aF0.0
aF0.0
aF0.0
aF0.0
aF0.0
aF0.0
aF0.0
aF0.0
aF0.0
aF0.0
aF0.0
aF0.006
aF0.003
aF0.0014
aF0.0014
aF1.0
aF1.0
aF0.0
aF0.0
aF0.0
aF0.0
aF0.0
aF0.0
aF0.0
aF0.0
aF0.0
aF0.0
aF1.0
aF1.0
aF0.0
aF0.0
aF0.0
aF0.0
aF0.0
aF0.0
aF0.0
aF0.0
aF0.0
aF0.0
aF0.0
aF0.0
aF0.0
aF0.0
aF0.0
aF0.0
asS'com.aaronbalderapps.awesomecheesecakeideas'
p83
(lp84
F0.9383
aF0.0
aF0.0
aF0.0
aF0.0
aF0.0
aF0.056
aF0.0
aF0.0057
aF0.0238
aF0.0
aF0.9762
aF0.0179
aF0.0
aF0.9821
aF0.0058
aF0.0
aF0.9942
aF0.0058
aF0.0
aF0.9942
aF0.5
aF0.0
aF0.5
aF0.0
aF0.7009
aF0.0
aF0.2991
aF0.0
aF0.0
aF0.0
aF0.0
aF0.0
aF0.0
aF0.0
aF0.0
aF0.119
aF0.0804
aF0.232
aF0.0545
aF0.25
aF0.7778
aF0.0616
aF0.5504
aF0.0
aF0.0
aF0.0
aF0.0
aF0.0
aF0.0
aF0.0
aF0.0
aF0.0
aF0.0
aF0.0
aF0.0
aF0.975
aF0.9938
aF1.0
aF1.0
aF0.025
aF0.0062
aF0.0
aF0.0
aF0.9259
aF0.9211
aF0.9524
aF0.9522
aF0.0
aF0.0
aF0.0
aF0.0
aF0.0741
aF0.0789
aF0.0476
aF0.0478
aF0.0
aF0.0
aF0.0
aF0.0
aF0.0
aF0.0
aF0.0
aF0.0
aF0.0
aF0.0
aF0.0
aF0.0
aF0.006
aF0.003
aF0.0014
aF0.0014
aF1.0
aF1.0
aF0.0
aF0.0
aF0.0
aF0.0
aF0.0
aF0.0
aF0.0
aF0.0
aF0.0
aF0.0
aF1.0
aF1.0
aF0.0
aF0.0
aF0.0
aF0.0
aF0.0
aF0.0
aF0.0
aF0.0
aF0.0
aF0.0
aF0.0
aF0.0
aF0.0
aF0.0
aF0.0
aF0.0
asS'com.aaronbalderapps.luxuriouslivingroomcurtains'
p85
(lp86
F0.9384
aF0.0
aF0.0
aF0.0
aF0.0
aF0.0
aF0.0559
aF0.0
aF0.0057
aF0.0238
aF0.0
aF0.9762
aF0.0179
aF0.0
aF0.9821
aF0.0058
aF0.0
aF0.9942
aF0.0058
aF0.0
aF0.9942
aF0.5
aF0.0
aF0.5
aF0.0
aF0.7
aF0.0
aF0.3
aF0.0
aF0.0
aF0.0
aF0.0
aF0.0
aF0.0
aF0.0
aF0.0
aF0.119
aF0.0804
aF0.2317
aF0.0545
aF0.25
aF0.7778
aF0.0616
aF0.5497
aF0.0
aF0.0
aF0.0
aF0.0
aF0.0
aF0.0
aF0.0
aF0.0
aF0.0
aF0.0
aF0.0
aF0.0
aF0.975
aF0.9938
aF1.0
aF1.0
aF0.025
aF0.0062
aF0.0
aF0.0
aF0.9259
aF0.9211
aF0.9524
aF0.9524
aF0.0
aF0.0
aF0.0
aF0.0
aF0.0741
aF0.0789
aF0.0476
aF0.0476
aF0.0
aF0.0
aF0.0
aF0.0
aF0.0
aF0.0
aF0.0
aF0.0
aF0.0
aF0.0
aF0.0
aF0.0
aF0.006
aF0.003
aF0.0014
aF0.0014
aF1.0
aF1.0
aF0.0
aF0.0
aF0.0
aF0.0
aF0.0
aF0.0
aF0.0
aF0.0
aF0.0
aF0.0
aF1.0
aF1.0
aF0.0
aF0.0
aF0.0
aF0.0
aF0.0
aF0.0
aF0.0
aF0.0
aF0.0
aF0.0
aF0.0
aF0.0
aF0.0
aF0.0
aF0.0
aF0.0
asS'com.GrowingIndoorGarden.JohnFehsenfeldjo'
p87
(lp88
F0.9393
aF0.0
aF0.0
aF0.0
aF0.0
aF0.0
aF0.0551
aF0.0
aF0.0056
aF0.0238
aF0.0
aF0.9762
aF0.0179
aF0.0
aF0.9821
aF0.0057
aF0.0
aF0.9943
aF0.0057
aF0.0
aF0.9943
aF0.5
aF0.0
aF0.5
aF0.0
aF0.7
aF0.0
aF0.3
aF0.0
aF0.0
aF0.0
aF0.0
aF0.0
aF0.0
aF0.0
aF0.0
aF0.1187
aF0.0801
aF0.2299
aF0.0538
aF0.25
aF0.7778
aF0.0612
aF0.5499
aF0.0
aF0.0
aF0.0
aF0.0
aF0.0
aF0.0
aF0.0
aF0.0
aF0.0
aF0.0
aF0.0
aF0.0
aF0.975
aF0.9938
aF1.0
aF1.0
aF0.025
aF0.0062
aF0.0
aF0.0
aF0.9259
aF0.9211
aF0.9524
aF0.9524
aF0.0
aF0.0
aF0.0
aF0.0
aF0.0741
aF0.0789
aF0.0476
aF0.0476
aF0.0
aF0.0
aF0.0
aF0.0
aF0.0
aF0.0
aF0.0
aF0.0
aF0.0
aF0.0
aF0.0
aF0.0
aF0.0059
aF0.003
aF0.0014
aF0.0014
aF1.0
aF1.0
aF0.0
aF0.0
aF0.0
aF0.0
aF0.0
aF0.0
aF0.0
aF0.0
aF0.0
aF0.0
aF1.0
aF1.0
aF0.0
aF0.0
aF0.0
aF0.0
aF0.0
aF0.0
aF0.0
aF0.0
aF0.0
aF0.0
aF0.0
aF0.0
aF0.0
aF0.0
aF0.0
aF0.0
asS'com.DIYcrochetKidsSweater.JoyceBurklin'
p89
(lp90
F0.9393
aF0.0
aF0.0
aF0.0
aF0.0
aF0.0
aF0.0551
aF0.0
aF0.0056
aF0.0238
aF0.0
aF0.9762
aF0.0179
aF0.0
aF0.9821
aF0.0057
aF0.0
aF0.9943
aF0.0057
aF0.0
aF0.9943
aF0.5
aF0.0
aF0.5
aF0.0
aF0.7
aF0.0
aF0.3
aF0.0
aF0.0
aF0.0
aF0.0
aF0.0
aF0.0
aF0.0
aF0.0
aF0.1187
aF0.0801
aF0.2299
aF0.0537
aF0.25
aF0.7778
aF0.0613
aF0.5502
aF0.0
aF0.0
aF0.0
aF0.0
aF0.0
aF0.0
aF0.0
aF0.0
aF0.0
aF0.0
aF0.0
aF0.0
aF0.975
aF0.9938
aF1.0
aF1.0
aF0.025
aF0.0062
aF0.0
aF0.0
aF0.9259
aF0.9211
aF0.9524
aF0.9524
aF0.0
aF0.0
aF0.0
aF0.0
aF0.0741
aF0.0789
aF0.0476
aF0.0476
aF0.0
aF0.0
aF0.0
aF0.0
aF0.0
aF0.0
aF0.0
aF0.0
aF0.0
aF0.0
aF0.0
aF0.0
aF0.0059
aF0.003
aF0.0014
aF0.0014
aF1.0
aF1.0
aF0.0
aF0.0
aF0.0
aF0.0
aF0.0
aF0.0
aF0.0
aF0.0
aF0.0
aF0.0
aF1.0
aF1.0
aF0.0
aF0.0
aF0.0
aF0.0
aF0.0
aF0.0
aF0.0
aF0.0
aF0.0
aF0.0
aF0.0
aF0.0
aF0.0
aF0.0
aF0.0
aF0.0
asS'com.BeardandMoustacheStyle.Nephilim'
p91
(lp92
F0.9496
aF0.0
aF0.0
aF0.0
aF0.0
aF0.0
aF0.0458
aF0.0
aF0.0047
aF0.0185
aF0.0
aF0.9815
aF0.0166
aF0.0
aF0.9834
aF0.0047
aF0.0
aF0.9953
aF0.0047
aF0.0
aF0.9953
aF1.0
aF0.0
aF0.0
aF0.0
aF1.0
aF0.0
aF0.0
aF0.0
aF0.0
aF0.0
aF0.0
aF0.0
aF0.0
aF0.0
aF0.0
aF0.0967
aF0.0387
aF0.0819
aF0.0196
aF0.3429
aF0.9286
aF0.1146
aF0.7147
aF0.0
aF0.0
aF0.0
aF0.0
aF0.0
aF0.0
aF0.0
aF0.0
aF0.0
aF0.0
aF0.0
aF0.0
aF1.0
aF1.0
aF1.0
aF1.0
aF0.0
aF0.0
aF0.0
aF0.0
aF0.9286
aF0.9401
aF0.9231
aF0.9167
aF0.0
aF0.0
aF0.0
aF0.0
aF0.0714
aF0.0599
aF0.0769
aF0.0833
aF0.0
aF0.0
aF0.0
aF0.0
aF0.0
aF0.0
aF0.0
aF0.0
aF0.0
aF0.0
aF0.0
aF0.0
aF0.0055
aF0.0028
aF0.0012
aF0.0012
aF1.0
aF1.0
aF0.0
aF0.0
aF0.0
aF0.0
aF0.0
aF0.0
aF0.0
aF0.0
aF0.0
aF0.0
aF1.0
aF1.0
aF0.0
aF0.0
aF0.0
aF0.0
aF0.0
aF0.0
aF0.0
aF0.0
aF0.0
aF0.0
aF0.0
aF0.0
aF0.0
aF0.0
aF0.0
aF0.0
asS'com.mozgame.sugarsplash'
p93
(lp94
F0.0
aF0.0
aF0.0
aF0.712
aF0.288
aF0.0
aF0.0
aF0.0
aF0.0
aF0.0
aF0.375
aF0.625
aF0.0
aF0.506
aF0.494
aF0.0
aF0.2888
aF0.7112
aF0.0
aF0.291
aF0.709
aF0.0
aF0.0
aF0.0
aF0.0
aF0.0
aF0.0
aF0.0
aF0.0
aF0.0
aF0.0
aF0.0
aF0.0
aF0.0
aF0.0
aF0.0
aF0.119
aF0.0
aF0.1361
aF0.0
aF0.0
aF0.0
aF0.0
aF0.0
aF0.0
aF0.0
aF0.0
aF0.0
aF0.0
aF0.0
aF0.0
aF0.0
aF0.0
aF0.0
aF0.0
aF0.0
aF1.0
aF1.0
aF0.0
aF0.0
aF0.0
aF0.0
aF0.0
aF0.0
aF0.0
aF0.0
aF0.0
aF0.0
aF0.0
aF0.0
aF0.0
aF0.0
aF0.0
aF0.0
aF0.0
aF0.0
aF0.0
aF0.0
aF0.0
aF0.0
aF0.0
aF0.0
aF0.0
aF0.0
aF0.0
aF0.0
aF0.0
aF0.0
aF0.0238
aF0.0119
aF0.0076
aF0.0076
aF0.0
aF0.0
aF1.0
aF1.0
aF0.0
aF0.0
aF0.0
aF0.0
aF0.0
aF0.0
aF0.0
aF0.0
aF0.0
aF0.0
aF0.0
aF0.0
aF0.0
aF0.0
aF0.0
aF0.0
aF1.0
aF1.0
aF0.0
aF0.0
aF0.0
aF0.0
aF0.0
aF0.0
aF0.0
aF0.0
asS'com.PinkBirthdayCakeIdea.JohnKazmierczak'
p95
(lp96
F0.9394
aF0.0
aF0.0
aF0.0
aF0.0
aF0.0
aF0.055
aF0.0
aF0.0056
aF0.0238
aF0.0
aF0.9762
aF0.0179
aF0.0
aF0.9821
aF0.0057
aF0.0
aF0.9943
aF0.0057
aF0.0
aF0.9943
aF0.5
aF0.0
aF0.5
aF0.0
aF0.6998
aF0.0
aF0.3002
aF0.0
aF0.0
aF0.0
aF0.0
aF0.0
aF0.0
aF0.0
aF0.0
aF0.1187
aF0.0801
aF0.23
aF0.0537
aF0.25
aF0.7778
aF0.0613
aF0.5504
aF0.0
aF0.0
aF0.0
aF0.0
aF0.0
aF0.0
aF0.0
aF0.0
aF0.0
aF0.0
aF0.0
aF0.0
aF0.975
aF0.9938
aF1.0
aF1.0
aF0.025
aF0.0062
aF0.0
aF0.0
aF0.9259
aF0.921
aF0.9524
aF0.9523
aF0.0
aF0.0
aF0.0
aF0.0
aF0.0741
aF0.079
aF0.0476
aF0.0477
aF0.0
aF0.0
aF0.0
aF0.0
aF0.0
aF0.0
aF0.0
aF0.0
aF0.0
aF0.0
aF0.0
aF0.0
aF0.0059
aF0.003
aF0.0014
aF0.0014
aF1.0
aF1.0
aF0.0
aF0.0
aF0.0
aF0.0
aF0.0
aF0.0
aF0.0
aF0.0
aF0.0
aF0.0
aF1.0
aF1.0
aF0.0
aF0.0
aF0.0
aF0.0
aF0.0
aF0.0
aF0.0
aF0.0
aF0.0
aF0.0
aF0.0
aF0.0
aF0.0
aF0.0
aF0.0
aF0.0
asS'com.rrg.bubblewonderland.free'
p97
(lp98
F0.0
aF0.0
aF0.0
aF0.7193666666666666
aF0.28063333333333335
aF0.0
aF0.0
aF0.0
aF0.0
aF0.0
aF0.3726
aF0.6274000000000001
aF0.0
aF0.502
aF0.498
aF0.0
aF0.2814666666666667
aF0.7185333333333332
aF0.0
aF0.2836666666666667
aF0.7163333333333334
aF0.0
aF0.0
aF0.0
aF0.6666666666666666
aF0.0
aF0.0
aF0.0
aF0.6666666666666666
aF0.0
aF0.0
aF0.0
aF0.0
aF0.0
aF0.0
aF0.0
aF0.12393333333333334
aF0.0
aF0.13759999999999997
aF0.0
aF0.0
aF0.0
aF0.0
aF0.0
aF0.0
aF0.0
aF0.0
aF0.0
aF0.0
aF0.0
aF0.0
aF0.0
aF0.0
aF0.0
aF0.0
aF0.0
aF1.0
aF1.0
aF0.0
aF0.0
aF0.0
aF0.0
aF0.0
aF0.0
aF0.0
aF0.0
aF0.0
aF0.0
aF0.0
aF0.0
aF0.0
aF0.0
aF0.0
aF0.0
aF0.0
aF0.0
aF0.0
aF0.0
aF0.0
aF0.0
aF0.0
aF0.0
aF0.0
aF0.0
aF0.0
aF0.0
aF0.0
aF0.0
aF0.023266666666666668
aF0.011633333333333334
aF0.007666666666666666
aF0.007666666666666666
aF0.0
aF0.0
aF1.0
aF1.0
aF0.0
aF0.0
aF0.0
aF0.0
aF0.0
aF0.0
aF0.0
aF0.0
aF0.0
aF0.0
aF0.0
aF0.0
aF0.0
aF0.0
aF0.0
aF0.0
aF1.0
aF1.0
aF0.0
aF0.0
aF0.0
aF0.0
aF0.0
aF0.0
aF0.0
aF0.0
asS'com.FloralJewelryDesign.JoyceBurklin'
p99
(lp100
F0.9393
aF0.0
aF0.0
aF0.0
aF0.0
aF0.0
aF0.0551
aF0.0
aF0.0056
aF0.0238
aF0.0
aF0.9762
aF0.0179
aF0.0
aF0.9821
aF0.0057
aF0.0
aF0.9943
aF0.0057
aF0.0
aF0.9943
aF0.5
aF0.0
aF0.5
aF0.0
aF0.7
aF0.0
aF0.3
aF0.0
aF0.0
aF0.0
aF0.0
aF0.0
aF0.0
aF0.0
aF0.0
aF0.1187
aF0.0801
aF0.2299
aF0.0538
aF0.25
aF0.7778
aF0.0613
aF0.55
aF0.0
aF0.0
aF0.0
aF0.0
aF0.0
aF0.0
aF0.0
aF0.0
aF0.0
aF0.0
aF0.0
aF0.0
aF0.975
aF0.9938
aF1.0
aF1.0
aF0.025
aF0.0062
aF0.0
aF0.0
aF0.9259
aF0.9211
aF0.9524
aF0.9524
aF0.0
aF0.0
aF0.0
aF0.0
aF0.0741
aF0.0789
aF0.0476
aF0.0476
aF0.0
aF0.0
aF0.0
aF0.0
aF0.0
aF0.0
aF0.0
aF0.0
aF0.0
aF0.0
aF0.0
aF0.0
aF0.0059
aF0.003
aF0.0014
aF0.0014
aF1.0
aF1.0
aF0.0
aF0.0
aF0.0
aF0.0
aF0.0
aF0.0
aF0.0
aF0.0
aF0.0
aF0.0
aF1.0
aF1.0
aF0.0
aF0.0
aF0.0
aF0.0
aF0.0
aF0.0
aF0.0
aF0.0
aF0.0
aF0.0
aF0.0
aF0.0
aF0.0
aF0.0
aF0.0
aF0.0
asS'com.aaronbalderapps.homeexteriordesign'
p101
(lp102
F0.9384
aF0.0
aF0.0
aF0.0
aF0.0
aF0.0
aF0.0559
aF0.0
aF0.0057
aF0.0238
aF0.0
aF0.9762
aF0.0179
aF0.0
aF0.9821
aF0.0058
aF0.0
aF0.9942
aF0.0058
aF0.0
aF0.9942
aF0.5
aF0.0
aF0.5
aF0.0
aF0.7
aF0.0
aF0.3
aF0.0
aF0.0
aF0.0
aF0.0
aF0.0
aF0.0
aF0.0
aF0.0
aF0.119
aF0.0804
aF0.2318
aF0.0545
aF0.25
aF0.7778
aF0.0616
aF0.5501
aF0.0
aF0.0
aF0.0
aF0.0
aF0.0
aF0.0
aF0.0
aF0.0
aF0.0
aF0.0
aF0.0
aF0.0
aF0.975
aF0.9938
aF1.0
aF1.0
aF0.025
aF0.0062
aF0.0
aF0.0
aF0.9259
aF0.9211
aF0.9524
aF0.9524
aF0.0
aF0.0
aF0.0
aF0.0
aF0.0741
aF0.0789
aF0.0476
aF0.0476
aF0.0
aF0.0
aF0.0
aF0.0
aF0.0
aF0.0
aF0.0
aF0.0
aF0.0
aF0.0
aF0.0
aF0.0
aF0.006
aF0.003
aF0.0014
aF0.0014
aF1.0
aF1.0
aF0.0
aF0.0
aF0.0
aF0.0
aF0.0
aF0.0
aF0.0
aF0.0
aF0.0
aF0.0
aF1.0
aF1.0
aF0.0
aF0.0
aF0.0
aF0.0
aF0.0
aF0.0
aF0.0
aF0.0
aF0.0
aF0.0
aF0.0
aF0.0
aF0.0
aF0.0
aF0.0
aF0.0
asS'android.fruitlinkdeqgh'
p103
(lp104
F0.0
aF0.0
aF0.0
aF0.9302
aF0.0698
aF0.0
aF0.0
aF0.0
aF0.0
aF0.0
aF0.3538
aF0.6462
aF0.0
aF0.4145
aF0.5855
aF0.0
aF0.0703
aF0.9297
aF0.0
aF0.0704
aF0.9296
aF0.4
aF0.0
aF0.6
aF0.0
aF0.0235
aF0.0
aF0.9765
aF0.0
aF0.0
aF0.0
aF0.0
aF0.0
aF0.0
aF0.0
aF0.0
aF0.191
aF0.0251
aF0.0619
aF0.2229
aF0.2895
aF1.0
aF0.07
aF0.0049
aF0.0
aF0.0
aF0.0
aF0.0
aF0.0
aF0.0
aF0.0
aF0.0
aF0.0
aF0.0
aF0.0
aF0.0
aF0.9737
aF0.9911
aF1.0
aF1.0
aF0.0263
aF0.0089
aF0.0
aF0.0
aF0.8
aF0.9975
aF0.8
aF0.9877
aF0.0
aF0.0
aF0.0
aF0.0
aF0.0
aF0.0
aF0.0
aF0.0
aF0.0
aF0.0
aF0.0
aF0.0
aF0.0
aF0.0
aF0.0
aF0.0
aF0.2
aF0.0025
aF0.2
aF0.0123
aF0.0201
aF0.005
aF0.0011
aF0.0005
aF0.0
aF0.0
aF0.75
aF0.9938
aF0.25
aF0.0062
aF0.0
aF0.0
aF0.0
aF0.0
aF0.0
aF0.0
aF0.0
aF0.0
aF0.0
aF0.0
aF0.0
aF0.0
aF0.0
aF0.0
aF1.0
aF1.0
aF0.0
aF0.0
aF0.0
aF0.0
aF0.0
aF0.0
aF0.0
aF0.0
asS'com.rrg.bubbleshoot'
p105
(lp106
F0.0
aF0.0
aF0.0
aF0.7153499999999999
aF0.28464999999999996
aF0.0
aF0.0
aF0.0
aF0.0
aF0.0
aF0.375
aF0.625
aF0.0
aF0.503
aF0.497
aF0.0
aF0.2855
aF0.7145
aF0.0
aF0.28774999999999995
aF0.71225
aF0.0
aF0.0
aF0.0
aF0.0
aF0.0
aF0.0
aF0.0
aF0.0
aF0.0
aF0.0
aF0.0
aF0.0
aF0.0
aF0.0
aF0.0
aF0.11975
aF0.0
aF0.1344
aF0.0
aF0.0
aF0.0
aF0.0
aF0.0
aF0.0
aF0.0
aF0.0
aF0.0
aF0.0
aF0.0
aF0.0
aF0.0
aF0.0
aF0.0
aF0.0
aF0.0
aF1.0
aF1.0
aF0.0
aF0.0
aF0.0
aF0.0
aF0.0
aF0.0
aF0.0
aF0.0
aF0.0
aF0.0
aF0.0
aF0.0
aF0.0
aF0.0
aF0.0
aF0.0
aF0.0
aF0.0
aF0.0
aF0.0
aF0.0
aF0.0
aF0.0
aF0.0
aF0.0
aF0.0
aF0.0
aF0.0
aF0.0
aF0.0
aF0.02395
aF0.01195
aF0.00775
aF0.0077
aF0.0
aF0.0
aF1.0
aF1.0
aF0.0
aF0.0
aF0.0
aF0.0
aF0.0
aF0.0
aF0.0
aF0.0
aF0.0
aF0.0
aF0.0
aF0.0
aF0.0
aF0.0
aF0.0
aF0.0
aF1.0
aF1.0
aF0.0
aF0.0
aF0.0
aF0.0
aF0.0
aF0.0
aF0.0
aF0.0
asS'com.rongfhgufhgsfh'
p107
(lp108
F0.0
aF0.0
aF0.0
aF0.9455
aF0.0545
aF0.0
aF0.0
aF0.0
aF0.0
aF0.0
aF0.2963
aF0.7037
aF0.0
aF0.3312
aF0.6687
aF0.0
aF0.055
aF0.945
aF0.0
aF0.055
aF0.945
aF0.0
aF0.0
aF1.0
aF0.0
aF0.0
aF0.0
aF1.0
aF0.0
aF0.0
aF0.0
aF0.0
aF0.0
aF0.0
aF0.0
aF0.0
aF0.2061
aF0.0303
aF0.054
aF0.1455
aF0.3235
aF1.0
aF0.1212
aF0.0092
aF0.0
aF0.0
aF0.0
aF0.0
aF0.0
aF0.0
aF0.0
aF0.0
aF0.0
aF0.0
aF0.0
aF0.0
aF0.9706
aF0.9877
aF1.0
aF1.0
aF0.0294
aF0.0123
aF0.0
aF0.0
aF0.8
aF0.9954
aF0.8
aF0.9922
aF0.0
aF0.0
aF0.0
aF0.0
aF0.0
aF0.0
aF0.0
aF0.0
aF0.0
aF0.0
aF0.0
aF0.0
aF0.0
aF0.0
aF0.0
aF0.0
aF0.2
aF0.0046
aF0.2
aF0.0078
aF0.0121
aF0.0061
aF0.0007
aF0.0007
aF0.0
aF0.0
aF1.0
aF1.0
aF0.0
aF0.0
aF0.0
aF0.0
aF0.0
aF0.0
aF0.0
aF0.0
aF1.0
aF1.0
aF0.0
aF0.0
aF0.0
aF0.0
aF0.0
aF0.0
aF0.0
aF0.0
aF0.0
aF0.0
aF0.0
aF0.0
aF0.0
aF0.0
aF0.0
aF0.0
asS'com.WomenFloralEarringDesign.JohnKazmierczak'
p109
(lp110
F0.9393
aF0.0
aF0.0
aF0.0
aF0.0
aF0.0
aF0.0551
aF0.0
aF0.0056
aF0.0238
aF0.0
aF0.9762
aF0.0179
aF0.0
aF0.9821
aF0.0057
aF0.0
aF0.9943
aF0.0057
aF0.0
aF0.9943
aF0.5
aF0.0
aF0.5
aF0.0
aF0.7
aF0.0
aF0.3
aF0.0
aF0.0
aF0.0
aF0.0
aF0.0
aF0.0
aF0.0
aF0.0
aF0.1187
aF0.0801
aF0.2299
aF0.0538
aF0.25
aF0.7778
aF0.0613
aF0.5499
aF0.0
aF0.0
aF0.0
aF0.0
aF0.0
aF0.0
aF0.0
aF0.0
aF0.0
aF0.0
aF0.0
aF0.0
aF0.975
aF0.9938
aF1.0
aF1.0
aF0.025
aF0.0062
aF0.0
aF0.0
aF0.9259
aF0.9211
aF0.9524
aF0.9524
aF0.0
aF0.0
aF0.0
aF0.0
aF0.0741
aF0.0789
aF0.0476
aF0.0476
aF0.0
aF0.0
aF0.0
aF0.0
aF0.0
aF0.0
aF0.0
aF0.0
aF0.0
aF0.0
aF0.0
aF0.0
aF0.0059
aF0.003
aF0.0014
aF0.0014
aF1.0
aF1.0
aF0.0
aF0.0
aF0.0
aF0.0
aF0.0
aF0.0
aF0.0
aF0.0
aF0.0
aF0.0
aF1.0
aF1.0
aF0.0
aF0.0
aF0.0
aF0.0
aF0.0
aF0.0
aF0.0
aF0.0
aF0.0
aF0.0
aF0.0
aF0.0
aF0.0
aF0.0
aF0.0
aF0.0
asS'com.arroyaapps.babyroomdesignideas'
p111
(lp112
F0.9393
aF0.0
aF0.0
aF0.0
aF0.0
aF0.0
aF0.0551
aF0.0
aF0.0056
aF0.0238
aF0.0
aF0.9762
aF0.0179
aF0.0
aF0.9821
aF0.0057
aF0.0
aF0.9943
aF0.0057
aF0.0
aF0.9943
aF0.5
aF0.0
aF0.5
aF0.0
aF0.7
aF0.0
aF0.3
aF0.0
aF0.0
aF0.0
aF0.0
aF0.0
aF0.0
aF0.0
aF0.0
aF0.1187
aF0.0801
aF0.2299
aF0.0538
aF0.25
aF0.7778
aF0.0613
aF0.55
aF0.0
aF0.0
aF0.0
aF0.0
aF0.0
aF0.0
aF0.0
aF0.0
aF0.0
aF0.0
aF0.0
aF0.0
aF0.975
aF0.9938
aF1.0
aF1.0
aF0.025
aF0.0062
aF0.0
aF0.0
aF0.9259
aF0.9211
aF0.9524
aF0.9524
aF0.0
aF0.0
aF0.0
aF0.0
aF0.0741
aF0.0789
aF0.0476
aF0.0476
aF0.0
aF0.0
aF0.0
aF0.0
aF0.0
aF0.0
aF0.0
aF0.0
aF0.0
aF0.0
aF0.0
aF0.0
aF0.0059
aF0.003
aF0.0014
aF0.0014
aF1.0
aF1.0
aF0.0
aF0.0
aF0.0
aF0.0
aF0.0
aF0.0
aF0.0
aF0.0
aF0.0
aF0.0
aF1.0
aF1.0
aF0.0
aF0.0
aF0.0
aF0.0
aF0.0
aF0.0
aF0.0
aF0.0
aF0.0
aF0.0
aF0.0
aF0.0
aF0.0
aF0.0
aF0.0
aF0.0
asS'com.arroyaapps.bedroompaintingideas'
p113
(lp114
F0.9393
aF0.0
aF0.0
aF0.0
aF0.0
aF0.0
aF0.0551
aF0.0
aF0.0056
aF0.0238
aF0.0
aF0.9762
aF0.0179
aF0.0
aF0.9821
aF0.0057
aF0.0
aF0.9943
aF0.0057
aF0.0
aF0.9943
aF0.5
aF0.0
aF0.5
aF0.0
aF0.7
aF0.0
aF0.3
aF0.0
aF0.0
aF0.0
aF0.0
aF0.0
aF0.0
aF0.0
aF0.0
aF0.1187
aF0.0801
aF0.2299
aF0.0538
aF0.25
aF0.7778
aF0.0612
aF0.5498
aF0.0
aF0.0
aF0.0
aF0.0
aF0.0
aF0.0
aF0.0
aF0.0
aF0.0
aF0.0
aF0.0
aF0.0
aF0.975
aF0.9938
aF1.0
aF1.0
aF0.025
aF0.0062
aF0.0
aF0.0
aF0.9259
aF0.9211
aF0.9524
aF0.9524
aF0.0
aF0.0
aF0.0
aF0.0
aF0.0741
aF0.0789
aF0.0476
aF0.0476
aF0.0
aF0.0
aF0.0
aF0.0
aF0.0
aF0.0
aF0.0
aF0.0
aF0.0
aF0.0
aF0.0
aF0.0
aF0.0059
aF0.003
aF0.0014
aF0.0014
aF1.0
aF1.0
aF0.0
aF0.0
aF0.0
aF0.0
aF0.0
aF0.0
aF0.0
aF0.0
aF0.0
aF0.0
aF1.0
aF1.0
aF0.0
aF0.0
aF0.0
aF0.0
aF0.0
aF0.0
aF0.0
aF0.0
aF0.0
aF0.0
aF0.0
aF0.0
aF0.0
aF0.0
aF0.0
aF0.0
asS'com.aaronbalderapps.narrowfoyerdecoratingideas'
p115
(lp116
F0.9384
aF0.0
aF0.0
aF0.0
aF0.0
aF0.0
aF0.0559
aF0.0
aF0.0057
aF0.0238
aF0.0
aF0.9762
aF0.0179
aF0.0
aF0.9821
aF0.0058
aF0.0
aF0.9942
aF0.0058
aF0.0
aF0.9942
aF0.5
aF0.0
aF0.5
aF0.0
aF0.7
aF0.0
aF0.3
aF0.0
aF0.0
aF0.0
aF0.0
aF0.0
aF0.0
aF0.0
aF0.0
aF0.119
aF0.0804
aF0.2318
aF0.0545
aF0.25
aF0.7778
aF0.0616
aF0.5501
aF0.0
aF0.0
aF0.0
aF0.0
aF0.0
aF0.0
aF0.0
aF0.0
aF0.0
aF0.0
aF0.0
aF0.0
aF0.975
aF0.9938
aF1.0
aF1.0
aF0.025
aF0.0062
aF0.0
aF0.0
aF0.9259
aF0.9211
aF0.9524
aF0.9524
aF0.0
aF0.0
aF0.0
aF0.0
aF0.0741
aF0.0789
aF0.0476
aF0.0476
aF0.0
aF0.0
aF0.0
aF0.0
aF0.0
aF0.0
aF0.0
aF0.0
aF0.0
aF0.0
aF0.0
aF0.0
aF0.006
aF0.003
aF0.0014
aF0.0014
aF1.0
aF1.0
aF0.0
aF0.0
aF0.0
aF0.0
aF0.0
aF0.0
aF0.0
aF0.0
aF0.0
aF0.0
aF1.0
aF1.0
aF0.0
aF0.0
aF0.0
aF0.0
aF0.0
aF0.0
aF0.0
aF0.0
aF0.0
aF0.0
aF0.0
aF0.0
aF0.0
aF0.0
aF0.0
aF0.0
asS'com.sss.naoyan.zimongjief'
p117
(lp118
F0.0
aF0.0
aF0.0
aF0.93324
aF0.06676
aF0.0
aF0.0
aF0.0
aF0.0
aF0.0
aF0.30155999999999994
aF0.69844
aF0.0
aF0.36340000000000006
aF0.6365999999999999
aF0.0
aF0.06726
aF0.9327399999999999
aF0.0
aF0.06736
aF0.9326399999999999
aF0.0
aF0.0
aF0.0
aF0.0
aF0.0
aF0.0
aF0.0
aF0.0
aF0.0
aF0.0
aF0.0
aF0.0
aF0.0
aF0.0
aF0.0
aF0.20599999999999996
aF0.0312
aF0.07796
aF0.0413
aF0.3333
aF1.0
aF0.06938000000000001
aF0.04938
aF0.0
aF0.0
aF0.0
aF0.0
aF0.0
aF0.0
aF0.0
aF0.0
aF0.0
aF0.0
aF0.0
aF0.0
aF0.9696999999999999
aF0.99132
aF1.0
aF1.0
aF0.0303
aF0.008679999999999998
aF0.0
aF0.0
aF0.8
aF0.9831
aF0.8
aF0.6739200000000001
aF0.0
aF0.0
aF0.0
aF0.0
aF0.0
aF0.0
aF0.0
aF0.0
aF0.0
aF0.0
aF0.0
aF0.0
aF0.0
aF0.0
aF0.0
aF0.0
aF0.2
aF0.0169
aF0.2
aF0.32608000000000004
aF0.0125
aF0.006240000000000001
aF0.0007
aF0.0007
aF0.0
aF0.0
aF1.0
aF1.0
aF0.0
aF0.0
aF0.0
aF0.0
aF0.0
aF0.0
aF0.0
aF0.0
aF1.0
aF1.0
aF0.0
aF0.0
aF0.0
aF0.0
aF0.0
aF0.0
aF0.0
aF0.0
aF0.0
aF0.0
aF0.0
aF0.0
aF0.0
aF0.0
aF0.0
aF0.0
asS'com.LipPiercingIdea.JohnKazmierczak'
p119
(lp120
F0.9396
aF0.0
aF0.0
aF0.0
aF0.0
aF0.0
aF0.0548
aF0.0
aF0.0056
aF0.0238
aF0.0
aF0.9762
aF0.0179
aF0.0
aF0.9821
aF0.0057
aF0.0
aF0.9943
aF0.0057
aF0.0
aF0.9943
aF0.5
aF0.0
aF0.5
aF0.0
aF0.6992
aF0.0
aF0.3008
aF0.0
aF0.0
aF0.0
aF0.0
aF0.0
aF0.0
aF0.0
aF0.0
aF0.1187
aF0.0801
aF0.2299
aF0.0537
aF0.25
aF0.7778
aF0.0613
aF0.55
aF0.0
aF0.0
aF0.0
aF0.0
aF0.0
aF0.0
aF0.0
aF0.0
aF0.0
aF0.0
aF0.0
aF0.0
aF0.975
aF0.9938
aF1.0
aF1.0
aF0.025
aF0.0062
aF0.0
aF0.0
aF0.9259
aF0.9209
aF0.9524
aF0.9523
aF0.0
aF0.0
aF0.0
aF0.0
aF0.0741
aF0.0791
aF0.0476
aF0.0477
aF0.0
aF0.0
aF0.0
aF0.0
aF0.0
aF0.0
aF0.0
aF0.0
aF0.0
aF0.0
aF0.0
aF0.0
aF0.0059
aF0.003
aF0.0014
aF0.0014
aF1.0
aF1.0
aF0.0
aF0.0
aF0.0
aF0.0
aF0.0
aF0.0
aF0.0
aF0.0
aF0.0
aF0.0
aF1.0
aF1.0
aF0.0
aF0.0
aF0.0
aF0.0
aF0.0
aF0.0
aF0.0
aF0.0
aF0.0
aF0.0
aF0.0
aF0.0
aF0.0
aF0.0
aF0.0
aF0.0
asS'com.example.netease.llj'
p121
(lp122
F0.0
aF0.0
aF0.0
aF0.0
aF0.0
aF0.0
aF0.8784
aF0.0
aF0.1216
aF0.4091
aF0.0
aF0.5909
aF0.3276
aF0.0
aF0.6724
aF0.1227
aF0.0
aF0.8773
aF0.1227
aF0.0
aF0.8773
aF1.0
aF0.0
aF0.0
aF0.0
aF1.0
aF0.0
aF0.0
aF0.0
aF0.0
aF0.0
aF0.0
aF0.0
aF0.0
aF0.0
aF0.0
aF0.1207
aF0.3448
aF0.3024
aF0.2752
aF0.8571
aF1.0
aF0.2104
aF0.85
aF0.0
aF0.0
aF0.0
aF0.0
aF0.0
aF0.0
aF0.0
aF0.0
aF0.0
aF0.0
aF0.0
aF0.0
aF1.0
aF1.0
aF1.0
aF1.0
aF0.0
aF0.0
aF0.0
aF0.0
aF0.9
aF0.8446
aF0.9
aF0.8634
aF0.0
aF0.0
aF0.0
aF0.0
aF0.1
aF0.1554
aF0.1
aF0.1366
aF0.0
aF0.0
aF0.0
aF0.0
aF0.0
aF0.0
aF0.0
aF0.0
aF0.0
aF0.0
aF0.0
aF0.0
aF0.0517
aF0.0345
aF0.0145
aF0.0145
aF1.0
aF1.0
aF0.0
aF0.0
aF0.0
aF0.0
aF0.0
aF0.0
aF0.0
aF0.0
aF0.0
aF0.0
aF0.0
aF0.0
aF0.0
aF0.0
aF0.0
aF0.0
aF0.0
aF0.0
aF0.5
aF0.994
aF0.0
aF0.0
aF0.5
aF0.006
aF0.0
aF0.0
aF0.0
aF0.0
asS'com.WeddingBouquetIdea.heidismith'
p123
(lp124
F0.9393
aF0.0
aF0.0
aF0.0
aF0.0
aF0.0
aF0.0551
aF0.0
aF0.0056
aF0.0238
aF0.0
aF0.9762
aF0.0179
aF0.0
aF0.9821
aF0.0057
aF0.0
aF0.9943
aF0.0057
aF0.0
aF0.9943
aF0.5
aF0.0
aF0.5
aF0.0
aF0.7
aF0.0
aF0.3
aF0.0
aF0.0
aF0.0
aF0.0
aF0.0
aF0.0
aF0.0
aF0.0
aF0.1187
aF0.0801
aF0.2299
aF0.0538
aF0.25
aF0.7778
aF0.0612
aF0.5497
aF0.0
aF0.0
aF0.0
aF0.0
aF0.0
aF0.0
aF0.0
aF0.0
aF0.0
aF0.0
aF0.0
aF0.0
aF0.975
aF0.9938
aF1.0
aF1.0
aF0.025
aF0.0062
aF0.0
aF0.0
aF0.9259
aF0.9211
aF0.9524
aF0.9524
aF0.0
aF0.0
aF0.0
aF0.0
aF0.0741
aF0.0789
aF0.0476
aF0.0476
aF0.0
aF0.0
aF0.0
aF0.0
aF0.0
aF0.0
aF0.0
aF0.0
aF0.0
aF0.0
aF0.0
aF0.0
aF0.0059
aF0.003
aF0.0014
aF0.0014
aF1.0
aF1.0
aF0.0
aF0.0
aF0.0
aF0.0
aF0.0
aF0.0
aF0.0
aF0.0
aF0.0
aF0.0
aF1.0
aF1.0
aF0.0
aF0.0
aF0.0
aF0.0
aF0.0
aF0.0
aF0.0
aF0.0
aF0.0
aF0.0
aF0.0
aF0.0
aF0.0
aF0.0
aF0.0
aF0.0
asS'com.arroyaapps.chandelierdesignideas'
p125
(lp126
F0.9396
aF0.0
aF0.0
aF0.0
aF0.0
aF0.0
aF0.0548
aF0.0
aF0.0056
aF0.0238
aF0.0
aF0.9762
aF0.0179
aF0.0
aF0.9821
aF0.0057
aF0.0
aF0.9943
aF0.0057
aF0.0
aF0.9943
aF0.5
aF0.0
aF0.5
aF0.0
aF0.6988
aF0.0
aF0.3012
aF0.0
aF0.0
aF0.0
aF0.0
aF0.0
aF0.0
aF0.0
aF0.0
aF0.1187
aF0.0801
aF0.23
aF0.0537
aF0.25
aF0.7778
aF0.0613
aF0.55
aF0.0
aF0.0
aF0.0
aF0.0
aF0.0
aF0.0
aF0.0
aF0.0
aF0.0
aF0.0
aF0.0
aF0.0
aF0.975
aF0.9938
aF1.0
aF1.0
aF0.025
aF0.0062
aF0.0
aF0.0
aF0.9259
aF0.9209
aF0.9524
aF0.9523
aF0.0
aF0.0
aF0.0
aF0.0
aF0.0741
aF0.0791
aF0.0476
aF0.0477
aF0.0
aF0.0
aF0.0
aF0.0
aF0.0
aF0.0
aF0.0
aF0.0
aF0.0
aF0.0
aF0.0
aF0.0
aF0.0059
aF0.003
aF0.0014
aF0.0014
aF1.0
aF1.0
aF0.0
aF0.0
aF0.0
aF0.0
aF0.0
aF0.0
aF0.0
aF0.0
aF0.0
aF0.0
aF1.0
aF1.0
aF0.0
aF0.0
aF0.0
aF0.0
aF0.0
aF0.0
aF0.0
aF0.0
aF0.0
aF0.0
aF0.0
aF0.0
aF0.0
aF0.0
aF0.0
aF0.0
asS'com.SmallFrontDoorDesigns.JillianJones'
p127
(lp128
F0.9393
aF0.0
aF0.0
aF0.0
aF0.0
aF0.0
aF0.0551
aF0.0
aF0.0056
aF0.0238
aF0.0
aF0.9762
aF0.0179
aF0.0
aF0.9821
aF0.0057
aF0.0
aF0.9943
aF0.0057
aF0.0
aF0.9943
aF0.5
aF0.0
aF0.5
aF0.0
aF0.7
aF0.0
aF0.3
aF0.0
aF0.0
aF0.0
aF0.0
aF0.0
aF0.0
aF0.0
aF0.0
aF0.1187
aF0.0801
aF0.2299
aF0.0537
aF0.25
aF0.7778
aF0.0613
aF0.5502
aF0.0
aF0.0
aF0.0
aF0.0
aF0.0
aF0.0
aF0.0
aF0.0
aF0.0
aF0.0
aF0.0
aF0.0
aF0.975
aF0.9938
aF1.0
aF1.0
aF0.025
aF0.0062
aF0.0
aF0.0
aF0.9259
aF0.9211
aF0.9524
aF0.9524
aF0.0
aF0.0
aF0.0
aF0.0
aF0.0741
aF0.0789
aF0.0476
aF0.0476
aF0.0
aF0.0
aF0.0
aF0.0
aF0.0
aF0.0
aF0.0
aF0.0
aF0.0
aF0.0
aF0.0
aF0.0
aF0.0059
aF0.003
aF0.0014
aF0.0014
aF1.0
aF1.0
aF0.0
aF0.0
aF0.0
aF0.0
aF0.0
aF0.0
aF0.0
aF0.0
aF0.0
aF0.0
aF1.0
aF1.0
aF0.0
aF0.0
aF0.0
aF0.0
aF0.0
aF0.0
aF0.0
aF0.0
aF0.0
aF0.0
aF0.0
aF0.0
aF0.0
aF0.0
aF0.0
aF0.0
asS'com.BabyGirlDressesGallery.Nephilim'
p129
(lp130
F0.9494
aF0.0
aF0.0
aF0.0
aF0.0
aF0.0
aF0.0459
aF0.0
aF0.0047
aF0.0201
aF0.0
aF0.9799
aF0.019
aF0.0
aF0.981
aF0.0047
aF0.0
aF0.9953
aF0.0048
aF0.0
aF0.9952
aF1.0
aF0.0
aF0.0
aF0.0
aF1.0
aF0.0
aF0.0
aF0.0
aF0.0
aF0.0
aF0.0
aF0.0
aF0.0
aF0.0
aF0.0
aF0.1073
aF0.0442
aF0.0809
aF0.0197
aF0.3529
aF0.9286
aF0.1166
aF0.717
aF0.0
aF0.0
aF0.0
aF0.0
aF0.0
aF0.0
aF0.0
aF0.0
aF0.0
aF0.0
aF0.0
aF0.0
aF1.0
aF1.0
aF1.0
aF1.0
aF0.0
aF0.0
aF0.0
aF0.0
aF0.9286
aF0.9398
aF0.9231
aF0.9167
aF0.0
aF0.0
aF0.0
aF0.0
aF0.0714
aF0.0602
aF0.0769
aF0.0833
aF0.0
aF0.0
aF0.0
aF0.0
aF0.0
aF0.0
aF0.0
aF0.0
aF0.0
aF0.0
aF0.0
aF0.0
aF0.0063
aF0.0032
aF0.0012
aF0.0012
aF1.0
aF1.0
aF0.0
aF0.0
aF0.0
aF0.0
aF0.0
aF0.0
aF0.0
aF0.0
aF0.0
aF0.0
aF1.0
aF1.0
aF0.0
aF0.0
aF0.0
aF0.0
aF0.0
aF0.0
aF0.0
aF0.0
aF0.0
aF0.0
aF0.0
aF0.0
aF0.0
aF0.0
aF0.0
aF0.0
asS'com.arroyaapps.romanticcanopybeds'
p131
(lp132
F0.9384
aF0.0
aF0.0
aF0.0
aF0.0
aF0.0
aF0.0559
aF0.0
aF0.0057
aF0.0238
aF0.0
aF0.9762
aF0.0179
aF0.0
aF0.9821
aF0.0058
aF0.0
aF0.9942
aF0.0058
aF0.0
aF0.9942
aF0.5
aF0.0
aF0.5
aF0.0
aF0.7
aF0.0
aF0.3
aF0.0
aF0.0
aF0.0
aF0.0
aF0.0
aF0.0
aF0.0
aF0.0
aF0.119
aF0.0804
aF0.2318
aF0.0545
aF0.25
aF0.7778
aF0.0616
aF0.5503
aF0.0
aF0.0
aF0.0
aF0.0
aF0.0
aF0.0
aF0.0
aF0.0
aF0.0
aF0.0
aF0.0
aF0.0
aF0.975
aF0.9938
aF1.0
aF1.0
aF0.025
aF0.0062
aF0.0
aF0.0
aF0.9259
aF0.9211
aF0.9524
aF0.9524
aF0.0
aF0.0
aF0.0
aF0.0
aF0.0741
aF0.0789
aF0.0476
aF0.0476
aF0.0
aF0.0
aF0.0
aF0.0
aF0.0
aF0.0
aF0.0
aF0.0
aF0.0
aF0.0
aF0.0
aF0.0
aF0.006
aF0.003
aF0.0014
aF0.0014
aF1.0
aF1.0
aF0.0
aF0.0
aF0.0
aF0.0
aF0.0
aF0.0
aF0.0
aF0.0
aF0.0
aF0.0
aF1.0
aF1.0
aF0.0
aF0.0
aF0.0
aF0.0
aF0.0
aF0.0
aF0.0
aF0.0
aF0.0
aF0.0
aF0.0
aF0.0
aF0.0
aF0.0
aF0.0
aF0.0
asS'com.arroyaapps.awesomecheesecakeideas'
p133
(lp134
F0.9393
aF0.0
aF0.0
aF0.0
aF0.0
aF0.0
aF0.0551
aF0.0
aF0.0056
aF0.0238
aF0.0
aF0.9762
aF0.0179
aF0.0
aF0.9821
aF0.0057
aF0.0
aF0.9943
aF0.0057
aF0.0
aF0.9943
aF0.5
aF0.0
aF0.5
aF0.0
aF0.7
aF0.0
aF0.3
aF0.0
aF0.0
aF0.0
aF0.0
aF0.0
aF0.0
aF0.0
aF0.0
aF0.1187
aF0.0801
aF0.2299
aF0.0538
aF0.25
aF0.7778
aF0.0612
aF0.5498
aF0.0
aF0.0
aF0.0
aF0.0
aF0.0
aF0.0
aF0.0
aF0.0
aF0.0
aF0.0
aF0.0
aF0.0
aF0.975
aF0.9938
aF1.0
aF1.0
aF0.025
aF0.0062
aF0.0
aF0.0
aF0.9259
aF0.9211
aF0.9524
aF0.9524
aF0.0
aF0.0
aF0.0
aF0.0
aF0.0741
aF0.0789
aF0.0476
aF0.0476
aF0.0
aF0.0
aF0.0
aF0.0
aF0.0
aF0.0
aF0.0
aF0.0
aF0.0
aF0.0
aF0.0
aF0.0
aF0.0059
aF0.003
aF0.0014
aF0.0014
aF1.0
aF1.0
aF0.0
aF0.0
aF0.0
aF0.0
aF0.0
aF0.0
aF0.0
aF0.0
aF0.0
aF0.0
aF1.0
aF1.0
aF0.0
aF0.0
aF0.0
aF0.0
aF0.0
aF0.0
aF0.0
aF0.0
aF0.0
aF0.0
aF0.0
aF0.0
aF0.0
aF0.0
aF0.0
aF0.0
asS'com.MenSherwaniDesign.JohnKazmierczak'
p135
(lp136
F0.9393
aF0.0
aF0.0
aF0.0
aF0.0
aF0.0
aF0.0551
aF0.0
aF0.0056
aF0.0238
aF0.0
aF0.9762
aF0.0179
aF0.0
aF0.9821
aF0.0057
aF0.0
aF0.9943
aF0.0057
aF0.0
aF0.9943
aF0.5
aF0.0
aF0.5
aF0.0
aF0.7
aF0.0
aF0.3
aF0.0
aF0.0
aF0.0
aF0.0
aF0.0
aF0.0
aF0.0
aF0.0
aF0.1187
aF0.0801
aF0.2299
aF0.0537
aF0.25
aF0.7778
aF0.0613
aF0.5501
aF0.0
aF0.0
aF0.0
aF0.0
aF0.0
aF0.0
aF0.0
aF0.0
aF0.0
aF0.0
aF0.0
aF0.0
aF0.975
aF0.9938
aF1.0
aF1.0
aF0.025
aF0.0062
aF0.0
aF0.0
aF0.9259
aF0.9211
aF0.9524
aF0.9524
aF0.0
aF0.0
aF0.0
aF0.0
aF0.0741
aF0.0789
aF0.0476
aF0.0476
aF0.0
aF0.0
aF0.0
aF0.0
aF0.0
aF0.0
aF0.0
aF0.0
aF0.0
aF0.0
aF0.0
aF0.0
aF0.0059
aF0.003
aF0.0014
aF0.0014
aF1.0
aF1.0
aF0.0
aF0.0
aF0.0
aF0.0
aF0.0
aF0.0
aF0.0
aF0.0
aF0.0
aF0.0
aF1.0
aF1.0
aF0.0
aF0.0
aF0.0
aF0.0
aF0.0
aF0.0
aF0.0
aF0.0
aF0.0
aF0.0
aF0.0
aF0.0
aF0.0
aF0.0
aF0.0
aF0.0
asS'com.vnsoft.fulllivewallpaper'
p137
(lp138
F0.8147
aF0.0016
aF0.0
aF0.0653
aF0.0183
aF0.0003
aF0.0841
aF0.0002
aF0.0155
aF0.1471
aF0.0478
aF0.8051
aF0.1155
aF0.0572
aF0.8272
aF0.0183
aF0.021
aF0.9607
aF0.0183
aF0.021
aF0.9607
aF0.6957
aF0.087
aF0.1304
aF0.087
aF0.9387
aF0.028
aF0.0284
aF0.0049
aF0.5645
aF0.0
aF0.2903
aF0.1452
aF0.0
aF0.7258
aF0.0
aF0.0865
aF0.0277
aF0.153
aF0.0407
aF0.2516
aF0.5882
aF0.0811
aF0.1322
aF0.0
aF0.0
aF0.0
aF0.0
aF0.0126
aF0.0012
aF0.0
aF0.0
aF0.0
aF0.0
aF0.0
aF0.0
aF0.9811
aF0.9976
aF1.0
aF1.0
aF0.0063
aF0.0012
aF0.0
aF0.0
aF0.7843
aF0.3346
aF0.8
aF0.8399
aF0.0196
aF0.0176
aF0.0
aF0.0
aF0.1373
aF0.057
aF0.1667
aF0.1281
aF0.0
aF0.0
aF0.0
aF0.0
aF0.0196
aF0.0016
aF0.0
aF0.0
aF0.0392
aF0.5892
aF0.0333
aF0.032
aF0.0201
aF0.0348
aF0.0046
aF0.0452
aF0.9459
aF0.9942
aF0.0
aF0.0
aF0.027
aF0.0029
aF0.027
aF0.0029
aF0.0
aF0.0
aF0.0
aF0.0
aF0.0
aF0.0
aF0.0
aF0.0
aF0.0
aF0.0
aF0.0
aF0.0
aF0.0781
aF0.0282
aF0.0
aF0.0
aF0.7188
aF0.8791
aF0.0781
aF0.039
aF0.125
aF0.0537
asS'com.arroyaapps.backyardwoodprojects'
p139
(lp140
F0.9392
aF0.0
aF0.0
aF0.0
aF0.0
aF0.0
aF0.0552
aF0.0
aF0.0056500000000000005
aF0.0238
aF0.0
aF0.9762
aF0.0179
aF0.0
aF0.9821
aF0.0057
aF0.0
aF0.9943
aF0.0057
aF0.0
aF0.9943
aF0.5
aF0.0
aF0.5
aF0.0
aF0.7004999999999999
aF0.0
aF0.2995
aF0.0
aF0.0
aF0.0
aF0.0
aF0.0
aF0.0
aF0.0
aF0.0
aF0.1187
aF0.0801
aF0.22995
aF0.05375
aF0.25
aF0.7778
aF0.06125
aF0.55
aF0.0
aF0.0
aF0.0
aF0.0
aF0.0
aF0.0
aF0.0
aF0.0
aF0.0
aF0.0
aF0.0
aF0.0
aF0.975
aF0.99385
aF1.0
aF1.0
aF0.025
aF0.00615
aF0.0
aF0.0
aF0.9259
aF0.9211
aF0.9524
aF0.9523
aF0.0
aF0.0
aF0.0
aF0.0
aF0.0741
aF0.0789
aF0.0476
aF0.047700000000000006
aF0.0
aF0.0
aF0.0
aF0.0
aF0.0
aF0.0
aF0.0
aF0.0
aF0.0
aF0.0
aF0.0
aF0.0
aF0.0059
aF0.003
aF0.0014
aF0.0014
aF1.0
aF1.0
aF0.0
aF0.0
aF0.0
aF0.0
aF0.0
aF0.0
aF0.0
aF0.0
aF0.0
aF0.0
aF1.0
aF1.0
aF0.0
aF0.0
aF0.0
aF0.0
aF0.0
aF0.0
aF0.0
aF0.0
aF0.0
aF0.0
aF0.0
aF0.0
aF0.0
aF0.0
aF0.0
aF0.0
asS'com.DecoartiveAndMinimalistDoorHouse.JoyceBurklin'
p141
(lp142
F0.9393
aF0.0
aF0.0
aF0.0
aF0.0
aF0.0
aF0.0551
aF0.0
aF0.0056
aF0.0238
aF0.0
aF0.9762
aF0.0179
aF0.0
aF0.9821
aF0.0057
aF0.0
aF0.9943
aF0.0057
aF0.0
aF0.9943
aF0.5
aF0.0
aF0.5
aF0.0
aF0.7
aF0.0
aF0.3
aF0.0
aF0.0
aF0.0
aF0.0
aF0.0
aF0.0
aF0.0
aF0.0
aF0.1187
aF0.0801
aF0.2299
aF0.0537
aF0.25
aF0.7778
aF0.0613
aF0.5502
aF0.0
aF0.0
aF0.0
aF0.0
aF0.0
aF0.0
aF0.0
aF0.0
aF0.0
aF0.0
aF0.0
aF0.0
aF0.975
aF0.9938
aF1.0
aF1.0
aF0.025
aF0.0062
aF0.0
aF0.0
aF0.9259
aF0.9211
aF0.9524
aF0.9524
aF0.0
aF0.0
aF0.0
aF0.0
aF0.0741
aF0.0789
aF0.0476
aF0.0476
aF0.0
aF0.0
aF0.0
aF0.0
aF0.0
aF0.0
aF0.0
aF0.0
aF0.0
aF0.0
aF0.0
aF0.0
aF0.0059
aF0.003
aF0.0014
aF0.0014
aF1.0
aF1.0
aF0.0
aF0.0
aF0.0
aF0.0
aF0.0
aF0.0
aF0.0
aF0.0
aF0.0
aF0.0
aF1.0
aF1.0
aF0.0
aF0.0
aF0.0
aF0.0
aF0.0
aF0.0
aF0.0
aF0.0
aF0.0
aF0.0
aF0.0
aF0.0
aF0.0
aF0.0
aF0.0
aF0.0
asS'com.aaronbalderapps.crochetpillowideas'
p143
(lp144
F0.9393
aF0.0
aF0.0
aF0.0
aF0.0
aF0.0
aF0.0551
aF0.0
aF0.0056
aF0.0238
aF0.0
aF0.9762
aF0.0179
aF0.0
aF0.9821
aF0.0057
aF0.0
aF0.9943
aF0.0057
aF0.0
aF0.9943
aF0.5
aF0.0
aF0.5
aF0.0
aF0.7
aF0.0
aF0.3
aF0.0
aF0.0
aF0.0
aF0.0
aF0.0
aF0.0
aF0.0
aF0.0
aF0.1187
aF0.0801
aF0.2299
aF0.0537
aF0.25
aF0.7778
aF0.0613
aF0.5502
aF0.0
aF0.0
aF0.0
aF0.0
aF0.0
aF0.0
aF0.0
aF0.0
aF0.0
aF0.0
aF0.0
aF0.0
aF0.975
aF0.9938
aF1.0
aF1.0
aF0.025
aF0.0062
aF0.0
aF0.0
aF0.9259
aF0.9211
aF0.9524
aF0.9524
aF0.0
aF0.0
aF0.0
aF0.0
aF0.0741
aF0.0789
aF0.0476
aF0.0476
aF0.0
aF0.0
aF0.0
aF0.0
aF0.0
aF0.0
aF0.0
aF0.0
aF0.0
aF0.0
aF0.0
aF0.0
aF0.0059
aF0.003
aF0.0014
aF0.0014
aF1.0
aF1.0
aF0.0
aF0.0
aF0.0
aF0.0
aF0.0
aF0.0
aF0.0
aF0.0
aF0.0
aF0.0
aF1.0
aF1.0
aF0.0
aF0.0
aF0.0
aF0.0
aF0.0
aF0.0
aF0.0
aF0.0
aF0.0
aF0.0
aF0.0
aF0.0
aF0.0
aF0.0
aF0.0
aF0.0
asS'com.zmfgfrtlay.InfgftellarChariotsdfer'
p145
(lp146
F0.0
aF0.0
aF0.0
aF0.9112
aF0.0888
aF0.0
aF0.0
aF0.0
aF0.0
aF0.0
aF0.339
aF0.661
aF0.0
aF0.3807
aF0.6193
aF0.0
aF0.0894
aF0.9106
aF0.0
aF0.0895
aF0.9105
aF0.25
aF0.0
aF0.75
aF0.0
aF0.0136
aF0.0
aF0.9864
aF0.0
aF1.0
aF0.0
aF0.0
aF0.0
aF0.0
aF0.0
aF0.0
aF0.1848
aF0.0272
aF0.0619
aF0.0048
aF0.3235
aF1.0
aF0.1444
aF0.4677
aF0.0
aF0.0
aF0.0
aF0.0
aF0.0
aF0.0
aF0.0
aF0.0
aF0.0
aF0.0
aF0.0
aF0.0
aF0.9412
aF0.9755
aF1.0
aF1.0
aF0.0588
aF0.0245
aF0.0
aF0.0
aF0.8
aF0.8419
aF0.8
aF0.9952
aF0.0
aF0.0
aF0.0
aF0.0
aF0.0
aF0.0
aF0.0
aF0.0
aF0.0
aF0.0
aF0.0
aF0.0
aF0.0
aF0.0
aF0.0
aF0.0
aF0.2
aF0.1581
aF0.2
aF0.0048
aF0.0163
aF0.0054
aF0.0008
aF0.0008
aF0.0
aF0.0
aF0.6667
aF0.9861
aF0.3333
aF0.0139
aF0.0
aF0.0
aF0.0
aF0.0
aF0.0
aF0.0
aF0.0
aF0.0
aF0.0
aF0.0
aF0.0
aF0.0
aF0.0
aF0.0
aF1.0
aF1.0
aF0.0
aF0.0
aF0.0
aF0.0
aF0.0
aF0.0
aF0.0
aF0.0
asS'com.FloralPrintDressesForYoungGirl.JohnKazmierczak'
p147
(lp148
F0.9392
aF0.0
aF0.0
aF0.0
aF0.0
aF0.0
aF0.0551
aF0.0
aF0.0056
aF0.0238
aF0.0
aF0.9762
aF0.0179
aF0.0
aF0.9821
aF0.0057
aF0.0
aF0.9943
aF0.0057
aF0.0
aF0.9943
aF0.5
aF0.0
aF0.5
aF0.0
aF0.7004
aF0.0
aF0.2996
aF0.0
aF0.0
aF0.0
aF0.0
aF0.0
aF0.0
aF0.0
aF0.0
aF0.1187
aF0.0801
aF0.2299
aF0.0537
aF0.25
aF0.7778
aF0.0613
aF0.5501
aF0.0
aF0.0
aF0.0
aF0.0
aF0.0
aF0.0
aF0.0
aF0.0
aF0.0
aF0.0
aF0.0
aF0.0
aF0.975
aF0.9938
aF1.0
aF1.0
aF0.025
aF0.0062
aF0.0
aF0.0
aF0.9259
aF0.9211
aF0.9524
aF0.9524
aF0.0
aF0.0
aF0.0
aF0.0
aF0.0741
aF0.0789
aF0.0476
aF0.0476
aF0.0
aF0.0
aF0.0
aF0.0
aF0.0
aF0.0
aF0.0
aF0.0
aF0.0
aF0.0
aF0.0
aF0.0
aF0.0059
aF0.003
aF0.0014
aF0.0014
aF1.0
aF1.0
aF0.0
aF0.0
aF0.0
aF0.0
aF0.0
aF0.0
aF0.0
aF0.0
aF0.0
aF0.0
aF1.0
aF1.0
aF0.0
aF0.0
aF0.0
aF0.0
aF0.0
aF0.0
aF0.0
aF0.0
aF0.0
aF0.0
aF0.0
aF0.0
aF0.0
aF0.0
aF0.0
aF0.0
asS'com.JuniorBikiniSwimsuit.JohnKazmierczak'
p149
(lp150
F0.9393
aF0.0
aF0.0
aF0.0
aF0.0
aF0.0
aF0.0551
aF0.0
aF0.0056
aF0.0238
aF0.0
aF0.9762
aF0.0179
aF0.0
aF0.9821
aF0.0057
aF0.0
aF0.9943
aF0.0057
aF0.0
aF0.9943
aF0.5
aF0.0
aF0.5
aF0.0
aF0.7
aF0.0
aF0.3
aF0.0
aF0.0
aF0.0
aF0.0
aF0.0
aF0.0
aF0.0
aF0.0
aF0.1187
aF0.0801
aF0.2299
aF0.0537
aF0.25
aF0.7778
aF0.0613
aF0.5501
aF0.0
aF0.0
aF0.0
aF0.0
aF0.0
aF0.0
aF0.0
aF0.0
aF0.0
aF0.0
aF0.0
aF0.0
aF0.975
aF0.9938
aF1.0
aF1.0
aF0.025
aF0.0062
aF0.0
aF0.0
aF0.9259
aF0.9211
aF0.9524
aF0.9524
aF0.0
aF0.0
aF0.0
aF0.0
aF0.0741
aF0.0789
aF0.0476
aF0.0476
aF0.0
aF0.0
aF0.0
aF0.0
aF0.0
aF0.0
aF0.0
aF0.0
aF0.0
aF0.0
aF0.0
aF0.0
aF0.0059
aF0.003
aF0.0014
aF0.0014
aF1.0
aF1.0
aF0.0
aF0.0
aF0.0
aF0.0
aF0.0
aF0.0
aF0.0
aF0.0
aF0.0
aF0.0
aF1.0
aF1.0
aF0.0
aF0.0
aF0.0
aF0.0
aF0.0
aF0.0
aF0.0
aF0.0
aF0.0
aF0.0
aF0.0
aF0.0
aF0.0
aF0.0
aF0.0
aF0.0
asS'com.gcgame.t1jkygkuku'
p151
(lp152
F0.0
aF0.0
aF0.0
aF0.925
aF0.075
aF0.0
aF0.0
aF0.0
aF0.0
aF0.0
aF0.3333
aF0.6667
aF0.0
aF0.3533
aF0.6467
aF0.0
aF0.0755
aF0.9245
aF0.0
aF0.0757
aF0.9243
aF0.4
aF0.0
aF0.6
aF0.0
aF0.3366
aF0.0
aF0.6634
aF0.0
aF0.0
aF0.0
aF0.0
aF0.0
aF0.0
aF0.0
aF0.0
aF0.1818
aF0.0284
aF0.0614
aF0.0117
aF0.375
aF1.0
aF0.1351
aF0.0683
aF0.0
aF0.0
aF0.0
aF0.0
aF0.0
aF0.0
aF0.0
aF0.0
aF0.0
aF0.0
aF0.0
aF0.0
aF0.9375
aF0.9752
aF1.0
aF1.0
aF0.0625
aF0.0248
aF0.0
aF0.0
aF0.8
aF0.9337
aF0.8
aF0.9857
aF0.0
aF0.0
aF0.0
aF0.0
aF0.0
aF0.0
aF0.0
aF0.0
aF0.0
aF0.0
aF0.0
aF0.0
aF0.0
aF0.0
aF0.0
aF0.0
aF0.2
aF0.0663
aF0.2
aF0.0143
aF0.0227
aF0.0114
aF0.0015
aF0.0015
aF0.5
aF0.5
aF0.5
aF0.5
aF0.0
aF0.0
aF0.0
aF0.0
aF0.0
aF0.0
aF0.0
aF0.0
aF0.0
aF0.0
aF0.0
aF0.0
aF0.0
aF0.0
aF0.0
aF0.0
aF0.5
aF0.5
aF0.0
aF0.0
aF0.5
aF0.5
aF0.0
aF0.0
aF0.0
aF0.0
asS'com.DogBedDesign.JoyceBurklin'
p153
(lp154
F0.9393
aF0.0
aF0.0
aF0.0
aF0.0
aF0.0
aF0.0551
aF0.0
aF0.0056
aF0.0238
aF0.0
aF0.9762
aF0.0179
aF0.0
aF0.9821
aF0.0057
aF0.0
aF0.9943
aF0.0057
aF0.0
aF0.9943
aF0.5
aF0.0
aF0.5
aF0.0
aF0.7
aF0.0
aF0.3
aF0.0
aF0.0
aF0.0
aF0.0
aF0.0
aF0.0
aF0.0
aF0.0
aF0.1187
aF0.0801
aF0.23
aF0.0537
aF0.25
aF0.7778
aF0.0613
aF0.5506
aF0.0
aF0.0
aF0.0
aF0.0
aF0.0
aF0.0
aF0.0
aF0.0
aF0.0
aF0.0
aF0.0
aF0.0
aF0.975
aF0.9938
aF1.0
aF1.0
aF0.025
aF0.0062
aF0.0
aF0.0
aF0.9259
aF0.9211
aF0.9524
aF0.9524
aF0.0
aF0.0
aF0.0
aF0.0
aF0.0741
aF0.0789
aF0.0476
aF0.0476
aF0.0
aF0.0
aF0.0
aF0.0
aF0.0
aF0.0
aF0.0
aF0.0
aF0.0
aF0.0
aF0.0
aF0.0
aF0.0059
aF0.003
aF0.0014
aF0.0014
aF1.0
aF1.0
aF0.0
aF0.0
aF0.0
aF0.0
aF0.0
aF0.0
aF0.0
aF0.0
aF0.0
aF0.0
aF1.0
aF1.0
aF0.0
aF0.0
aF0.0
aF0.0
aF0.0
aF0.0
aF0.0
aF0.0
aF0.0
aF0.0
aF0.0
aF0.0
aF0.0
aF0.0
aF0.0
aF0.0
asS'app.cn.aiyouv.www'
p155
(lp156
F0.0
aF0.0
aF0.0
aF0.9279
aF0.0721
aF0.0
aF0.0
aF0.0
aF0.0
aF0.0
aF0.0667
aF0.9333
aF0.0
aF0.1875
aF0.8125
aF0.0
aF0.0724
aF0.9276
aF0.0
aF0.0724
aF0.9276
aF0.0
aF0.0
aF0.0
aF0.0
aF0.0
aF0.0
aF0.0
aF0.0
aF0.0
aF0.0
aF0.0
aF0.0
aF0.0
aF0.0
aF0.0
aF0.1875
aF0.0312
aF0.1625
aF0.0181
aF0.5
aF1.0
aF0.3322
aF0.9948
aF0.0
aF0.0
aF0.0
aF0.0
aF0.0
aF0.0
aF0.0
aF0.0
aF0.0
aF0.0
aF0.0
aF0.0
aF1.0
aF1.0
aF1.0
aF1.0
aF0.0
aF0.0
aF0.0
aF0.0
aF0.0
aF0.0
aF0.0
aF0.0
aF0.0
aF0.0
aF0.0
aF0.0
aF0.0
aF0.0
aF0.0
aF0.0
aF0.0
aF0.0
aF0.0
aF0.0
aF0.0
aF0.0
aF0.0
aF0.0
aF1.0
aF1.0
aF1.0
aF1.0
aF0.0
aF0.0
aF0.0
aF0.0
aF0.0
aF0.0
aF0.0
aF0.0
aF0.0
aF0.0
aF0.0
aF0.0
aF0.0
aF0.0
aF0.0
aF0.0
aF0.0
aF0.0
aF0.0
aF0.0
aF0.0
aF0.0
aF0.0
aF0.0
aF0.0
aF0.0
aF0.0
aF0.0
aF0.0
aF0.0
aF0.0
aF0.0
aF0.0
aF0.0
asS'com.tanke.InterstellarChariots3D91bb'
p157
(lp158
F0.0
aF0.0
aF0.0
aF0.928
aF0.07200000000000001
aF0.0
aF0.0
aF0.0
aF0.0
aF0.0
aF0.31255
aF0.68745
aF0.0
aF0.345225
aF0.654775
aF0.0
aF0.07250000000000001
aF0.9275
aF0.0
aF0.072625
aF0.927375
aF0.0
aF0.0
aF1.0
aF0.0
aF0.0
aF0.0
aF1.0
aF0.0
aF1.0
aF0.0
aF0.0
aF0.0
aF0.0
aF0.0
aF0.0
aF0.185525
aF0.030924999999999998
aF0.0624
aF0.0049250000000000006
aF0.35835
aF1.0
aF0.14582499999999998
aF0.5428
aF0.0
aF0.0
aF0.0
aF0.0
aF0.0
aF0.0
aF0.0
aF0.0
aF0.0
aF0.0
aF0.0
aF0.0
aF0.9333
aF0.9753000000000001
aF1.0
aF1.0
aF0.0667
aF0.0247
aF0.0
aF0.0
aF0.8
aF0.841925
aF0.8
aF0.8732000000000001
aF0.0
aF0.0
aF0.0
aF0.0
aF0.0
aF0.0
aF0.0
aF0.0
aF0.0
aF0.0
aF0.0
aF0.0
aF0.0
aF0.0
aF0.0
aF0.0
aF0.2
aF0.15807500000000002
aF0.2
aF0.1268
aF0.013799999999999998
aF0.0062
aF0.0008
aF0.000775
aF0.0
aF0.0
aF0.916675
aF0.996525
aF0.083325
aF0.003475
aF0.0
aF0.0
aF0.0
aF0.0
aF0.0
aF0.0
aF0.0
aF0.0
aF0.0
aF0.0
aF0.0
aF0.0
aF0.0
aF0.0
aF1.0
aF1.0
aF0.0
aF0.0
aF0.0
aF0.0
aF0.0
aF0.0
aF0.0
aF0.0
asS'com.MenHairStylesNew.Nephilim'
p159
(lp160
F0.9494
aF0.0
aF0.0
aF0.0
aF0.0
aF0.0
aF0.0459
aF0.0
aF0.0047
aF0.0201
aF0.0
aF0.9799
aF0.019
aF0.0
aF0.981
aF0.0047
aF0.0
aF0.9953
aF0.0047
aF0.0
aF0.9953
aF1.0
aF0.0
aF0.0
aF0.0
aF1.0
aF0.0
aF0.0
aF0.0
aF0.0
aF0.0
aF0.0
aF0.0
aF0.0
aF0.0
aF0.0
aF0.1073
aF0.0442
aF0.0809
aF0.0197
aF0.3529
aF0.9286
aF0.1164
aF0.7162
aF0.0
aF0.0
aF0.0
aF0.0
aF0.0
aF0.0
aF0.0
aF0.0
aF0.0
aF0.0
aF0.0
aF0.0
aF1.0
aF1.0
aF1.0
aF1.0
aF0.0
aF0.0
aF0.0
aF0.0
aF0.9286
aF0.9399
aF0.9231
aF0.9167
aF0.0
aF0.0
aF0.0
aF0.0
aF0.0714
aF0.0601
aF0.0769
aF0.0833
aF0.0
aF0.0
aF0.0
aF0.0
aF0.0
aF0.0
aF0.0
aF0.0
aF0.0
aF0.0
aF0.0
aF0.0
aF0.0063
aF0.0032
aF0.0012
aF0.0012
aF1.0
aF1.0
aF0.0
aF0.0
aF0.0
aF0.0
aF0.0
aF0.0
aF0.0
aF0.0
aF0.0
aF0.0
aF1.0
aF1.0
aF0.0
aF0.0
aF0.0
aF0.0
aF0.0
aF0.0
aF0.0
aF0.0
aF0.0
aF0.0
aF0.0
aF0.0
aF0.0
aF0.0
aF0.0
aF0.0
asS'com.WeddingTablecloth.SusanBeall'
p161
(lp162
F0.9393
aF0.0
aF0.0
aF0.0
aF0.0
aF0.0
aF0.0551
aF0.0
aF0.0056
aF0.0238
aF0.0
aF0.9762
aF0.0179
aF0.0
aF0.9821
aF0.0057
aF0.0
aF0.9943
aF0.0057
aF0.0
aF0.9943
aF0.5
aF0.0
aF0.5
aF0.0
aF0.7
aF0.0
aF0.3
aF0.0
aF0.0
aF0.0
aF0.0
aF0.0
aF0.0
aF0.0
aF0.0
aF0.1187
aF0.0801
aF0.2299
aF0.0537
aF0.25
aF0.7778
aF0.0613
aF0.5503
aF0.0
aF0.0
aF0.0
aF0.0
aF0.0
aF0.0
aF0.0
aF0.0
aF0.0
aF0.0
aF0.0
aF0.0
aF0.975
aF0.9938
aF1.0
aF1.0
aF0.025
aF0.0062
aF0.0
aF0.0
aF0.9259
aF0.9211
aF0.9524
aF0.9524
aF0.0
aF0.0
aF0.0
aF0.0
aF0.0741
aF0.0789
aF0.0476
aF0.0476
aF0.0
aF0.0
aF0.0
aF0.0
aF0.0
aF0.0
aF0.0
aF0.0
aF0.0
aF0.0
aF0.0
aF0.0
aF0.0059
aF0.003
aF0.0014
aF0.0014
aF1.0
aF1.0
aF0.0
aF0.0
aF0.0
aF0.0
aF0.0
aF0.0
aF0.0
aF0.0
aF0.0
aF0.0
aF1.0
aF1.0
aF0.0
aF0.0
aF0.0
aF0.0
aF0.0
aF0.0
aF0.0
aF0.0
aF0.0
aF0.0
aF0.0
aF0.0
aF0.0
aF0.0
aF0.0
aF0.0
asS'com.LipPiercingIdeas.JohnFehsenfeldjo'
p163
(lp164
F0.9393
aF0.0
aF0.0
aF0.0
aF0.0
aF0.0
aF0.0551
aF0.0
aF0.0056
aF0.0238
aF0.0
aF0.9762
aF0.0179
aF0.0
aF0.9821
aF0.0057
aF0.0
aF0.9943
aF0.0057
aF0.0
aF0.9943
aF0.5
aF0.0
aF0.5
aF0.0
aF0.7
aF0.0
aF0.3
aF0.0
aF0.0
aF0.0
aF0.0
aF0.0
aF0.0
aF0.0
aF0.0
aF0.1187
aF0.0801
aF0.2299
aF0.0538
aF0.25
aF0.7778
aF0.0613
aF0.55
aF0.0
aF0.0
aF0.0
aF0.0
aF0.0
aF0.0
aF0.0
aF0.0
aF0.0
aF0.0
aF0.0
aF0.0
aF0.975
aF0.9938
aF1.0
aF1.0
aF0.025
aF0.0062
aF0.0
aF0.0
aF0.9259
aF0.9211
aF0.9524
aF0.9524
aF0.0
aF0.0
aF0.0
aF0.0
aF0.0741
aF0.0789
aF0.0476
aF0.0476
aF0.0
aF0.0
aF0.0
aF0.0
aF0.0
aF0.0
aF0.0
aF0.0
aF0.0
aF0.0
aF0.0
aF0.0
aF0.0059
aF0.003
aF0.0014
aF0.0014
aF1.0
aF1.0
aF0.0
aF0.0
aF0.0
aF0.0
aF0.0
aF0.0
aF0.0
aF0.0
aF0.0
aF0.0
aF1.0
aF1.0
aF0.0
aF0.0
aF0.0
aF0.0
aF0.0
aF0.0
aF0.0
aF0.0
aF0.0
aF0.0
aF0.0
aF0.0
aF0.0
aF0.0
aF0.0
aF0.0
asS'com.onetouch.carsspecs'
p165
(lp166
F0.9875
aF0.0
aF0.0
aF0.0111
aF0.0014
aF0.0
aF0.0
aF0.0
aF0.0
aF0.0
aF0.0301
aF0.9699
aF0.0
aF0.0166
aF0.9834
aF0.0
aF0.0015
aF0.9985
aF0.0
aF0.0015
aF0.9985
aF0.75
aF0.0
aF0.25
aF0.0
aF0.8036
aF0.0
aF0.1964
aF0.0
aF0.0
aF0.0
aF0.0
aF1.0
aF0.0
aF0.0
aF0.0
aF0.0875
aF0.0142
aF0.0898
aF0.0104
aF0.1081
aF0.1667
aF0.0471
aF0.1014
aF0.0
aF0.0
aF0.0
aF0.0
aF0.0
aF0.0
aF0.0
aF0.0
aF0.0
aF0.0
aF0.0
aF0.0
aF1.0
aF1.0
aF1.0
aF1.0
aF0.0
aF0.0
aF0.0
aF0.0
aF0.6667
aF0.6085
aF0.0
aF0.0
aF0.0
aF0.0
aF0.0
aF0.0
aF0.3333
aF0.3915
aF1.0
aF1.0
aF0.0
aF0.0
aF0.0
aF0.0
aF0.0
aF0.0
aF0.0
aF0.0
aF0.0
aF0.0
aF0.0
aF0.0
aF0.0071
aF0.0024
aF0.0015
aF0.0014
aF1.0
aF1.0
aF0.0
aF0.0
aF0.0
aF0.0
aF0.0
aF0.0
aF0.0
aF0.0
aF0.0
aF0.0
aF0.0
aF0.0
aF0.0
aF0.0
aF0.0
aF0.0
aF0.0
aF0.0
aF0.0
aF0.0
aF0.0
aF0.0
aF1.0
aF1.0
aF0.0
aF0.0
aF0.0
aF0.0
asS'com.WallDecoratingIdeas.ArloNord'
p167
(lp168
F0.9393
aF0.0
aF0.0
aF0.0
aF0.0
aF0.0
aF0.0551
aF0.0
aF0.0056
aF0.0238
aF0.0
aF0.9762
aF0.0179
aF0.0
aF0.9821
aF0.0057
aF0.0
aF0.9943
aF0.0057
aF0.0
aF0.9943
aF0.5
aF0.0
aF0.5
aF0.0
aF0.7
aF0.0
aF0.3
aF0.0
aF0.0
aF0.0
aF0.0
aF0.0
aF0.0
aF0.0
aF0.0
aF0.1187
aF0.0801
aF0.2298
aF0.0538
aF0.25
aF0.7778
aF0.0612
aF0.5496
aF0.0
aF0.0
aF0.0
aF0.0
aF0.0
aF0.0
aF0.0
aF0.0
aF0.0
aF0.0
aF0.0
aF0.0
aF0.975
aF0.9938
aF1.0
aF1.0
aF0.025
aF0.0062
aF0.0
aF0.0
aF0.9259
aF0.9211
aF0.9524
aF0.9524
aF0.0
aF0.0
aF0.0
aF0.0
aF0.0741
aF0.0789
aF0.0476
aF0.0476
aF0.0
aF0.0
aF0.0
aF0.0
aF0.0
aF0.0
aF0.0
aF0.0
aF0.0
aF0.0
aF0.0
aF0.0
aF0.0059
aF0.003
aF0.0014
aF0.0014
aF1.0
aF1.0
aF0.0
aF0.0
aF0.0
aF0.0
aF0.0
aF0.0
aF0.0
aF0.0
aF0.0
aF0.0
aF1.0
aF1.0
aF0.0
aF0.0
aF0.0
aF0.0
aF0.0
aF0.0
aF0.0
aF0.0
aF0.0
aF0.0
aF0.0
aF0.0
aF0.0
aF0.0
aF0.0
aF0.0
asS'com.ssszujixiao.naoyan.zimon'
p169
(lp170
F0.0
aF0.0
aF0.0
aF0.9319
aF0.0681
aF0.0
aF0.0
aF0.0
aF0.0
aF0.0
aF0.3137
aF0.6863
aF0.0
aF0.3718
aF0.6282
aF0.0
aF0.0686
aF0.9314
aF0.0
aF0.0687
aF0.9313
aF0.0
aF0.0
aF0.0
aF0.0
aF0.0
aF0.0
aF0.0
aF0.0
aF0.0
aF0.0
aF0.0
aF0.0
aF0.0
aF0.0
aF0.0
aF0.205
aF0.0311
aF0.0788
aF0.0415
aF0.3333
aF1.0
aF0.0689
aF0.0493
aF0.0
aF0.0
aF0.0
aF0.0
aF0.0
aF0.0
aF0.0
aF0.0
aF0.0
aF0.0
aF0.0
aF0.0
aF0.9697
aF0.9914
aF1.0
aF1.0
aF0.0303
aF0.0086
aF0.0
aF0.0
aF0.8
aF0.9832
aF0.8
aF0.6733
aF0.0
aF0.0
aF0.0
aF0.0
aF0.0
aF0.0
aF0.0
aF0.0
aF0.0
aF0.0
aF0.0
aF0.0
aF0.0
aF0.0
aF0.0
aF0.0
aF0.2
aF0.0168
aF0.2
aF0.3267
aF0.0124
aF0.0062
aF0.0007
aF0.0007
aF0.0
aF0.0
aF1.0
aF1.0
aF0.0
aF0.0
aF0.0
aF0.0
aF0.0
aF0.0
aF0.0
aF0.0
aF1.0
aF1.0
aF0.0
aF0.0
aF0.0
aF0.0
aF0.0
aF0.0
aF0.0
aF0.0
aF0.0
aF0.0
aF0.0
aF0.0
aF0.0
aF0.0
aF0.0
aF0.0
asS'com.wb.gc.ttxfk.mi'
p171
(lp172
F0.0
aF0.0
aF0.0
aF0.7892
aF0.2108
aF0.0
aF0.0
aF0.0
aF0.0
aF0.0
aF0.5556
aF0.4444
aF0.0
aF0.6129
aF0.3871
aF0.0
aF0.2119
aF0.7881
aF0.0
aF0.2119
aF0.7881
aF0.0
aF0.0
aF0.0
aF0.0
aF0.0
aF0.0
aF0.0
aF0.0
aF0.0
aF0.0
aF0.0
aF0.0
aF0.0
aF0.0
aF0.0
aF0.0968
aF0.0161
aF0.0784
aF0.0121
aF0.0
aF0.0
aF0.0
aF0.0
aF0.0
aF0.0
aF0.0
aF0.0
aF0.0
aF0.0
aF0.0
aF0.0
aF0.0
aF0.0
aF0.0
aF0.0
aF0.8333
aF0.8461
aF0.0
aF0.0
aF0.1667
aF0.1539
aF0.0
aF0.0
aF0.0
aF0.0
aF0.0
aF0.0
aF0.0
aF0.0
aF0.0
aF0.0
aF0.0
aF0.0
aF0.0
aF0.0
aF0.0
aF0.0
aF0.0
aF0.0
aF0.0
aF0.0
aF0.0
aF0.0
aF1.0
aF1.0
aF0.0
aF0.0
aF0.0
aF0.0
aF0.0
aF0.0
aF0.0
aF0.0
aF0.0
aF0.0
aF0.0
aF0.0
aF0.0
aF0.0
aF0.0
aF0.0
aF0.0
aF0.0
aF0.0
aF0.0
aF0.0
aF0.0
aF0.0
aF0.0
aF0.0
aF0.0
aF0.0
aF0.0
aF0.0
aF0.0
aF0.0
aF0.0
aF0.0
aF0.0
aF0.0
aF0.0
asS'com.HouseCeilingIdea.JohnKazmierczak'
p173
(lp174
F0.9396
aF0.0
aF0.0
aF0.0
aF0.0
aF0.0
aF0.0548
aF0.0
aF0.0056
aF0.0238
aF0.0
aF0.9762
aF0.0179
aF0.0
aF0.9821
aF0.0057
aF0.0
aF0.9943
aF0.0057
aF0.0
aF0.9943
aF0.5
aF0.0
aF0.5
aF0.0
aF0.6991
aF0.0
aF0.3009
aF0.0
aF0.0
aF0.0
aF0.0
aF0.0
aF0.0
aF0.0
aF0.0
aF0.1187
aF0.0801
aF0.2299
aF0.0537
aF0.25
aF0.7778
aF0.0612
aF0.5497
aF0.0
aF0.0
aF0.0
aF0.0
aF0.0
aF0.0
aF0.0
aF0.0
aF0.0
aF0.0
aF0.0
aF0.0
aF0.975
aF0.9938
aF1.0
aF1.0
aF0.025
aF0.0062
aF0.0
aF0.0
aF0.9259
aF0.9209
aF0.9524
aF0.9523
aF0.0
aF0.0
aF0.0
aF0.0
aF0.0741
aF0.0791
aF0.0476
aF0.0477
aF0.0
aF0.0
aF0.0
aF0.0
aF0.0
aF0.0
aF0.0
aF0.0
aF0.0
aF0.0
aF0.0
aF0.0
aF0.0059
aF0.003
aF0.0014
aF0.0014
aF1.0
aF1.0
aF0.0
aF0.0
aF0.0
aF0.0
aF0.0
aF0.0
aF0.0
aF0.0
aF0.0
aF0.0
aF1.0
aF1.0
aF0.0
aF0.0
aF0.0
aF0.0
aF0.0
aF0.0
aF0.0
aF0.0
aF0.0
aF0.0
aF0.0
aF0.0
aF0.0
aF0.0
aF0.0
aF0.0
asS'com.gcgame.t1fggdgdgd'
p175
(lp176
F0.0
aF0.0
aF0.0
aF0.9249
aF0.0751
aF0.0
aF0.0
aF0.0
aF0.0
aF0.0
aF0.3621
aF0.6379
aF0.0
aF0.3563
aF0.6438
aF0.0
aF0.0757
aF0.9243
aF0.0
aF0.0758
aF0.9242
aF0.4
aF0.0
aF0.6
aF0.0
aF0.337
aF0.0
aF0.663
aF0.0
aF0.0
aF0.0
aF0.0
aF0.0
aF0.0
aF0.0
aF0.0
aF0.1916
aF0.0299
aF0.0652
aF0.0125
aF0.3438
aF1.0
aF0.14
aF0.185
aF0.0
aF0.0
aF0.0
aF0.0
aF0.0
aF0.0
aF0.0
aF0.0
aF0.0
aF0.0
aF0.0
aF0.0
aF0.9375
aF0.9763
aF1.0
aF1.0
aF0.0625
aF0.0237
aF0.0
aF0.0
aF0.8
aF0.9373
aF0.8
aF0.9945
aF0.0
aF0.0
aF0.0
aF0.0
aF0.0
aF0.0
aF0.0
aF0.0
aF0.0
aF0.0
aF0.0
aF0.0
aF0.0
aF0.0
aF0.0
aF0.0
aF0.2
aF0.0627
aF0.2
aF0.0055
aF0.024
aF0.012
aF0.0016
aF0.0015
aF0.5
aF0.5
aF0.5
aF0.5
aF0.0
aF0.0
aF0.0
aF0.0
aF0.0
aF0.0
aF0.0
aF0.0
aF0.0
aF0.0
aF0.0
aF0.0
aF0.0
aF0.0
aF0.0
aF0.0
aF0.5
aF0.5
aF0.0
aF0.0
aF0.5
aF0.5
aF0.0
aF0.0
aF0.0
aF0.0
asS'com.Majdi.RadioTunisienne'
p177
(lp178
F0.9995
aF0.0
aF0.0
aF0.0
aF0.0
aF0.0
aF0.0005
aF0.0
aF0.0
aF0.0027
aF0.0
aF0.9973
aF0.0014
aF0.0
aF0.9986
aF0.0
aF0.0
aF1.0
aF0.0
aF0.0
aF1.0
aF0.5
aF0.0
aF0.5
aF0.0
aF0.9289
aF0.0
aF0.0711
aF0.0
aF0.4925
aF0.0
aF0.0
aF0.5075
aF0.0
aF0.0
aF0.0
aF0.0708
aF0.0293
aF0.1047
aF0.0189
aF0.2424
aF0.6829
aF0.0587
aF0.3176
aF0.0
aF0.0
aF0.0
aF0.0
aF0.0
aF0.0
aF0.0
aF0.0
aF0.0
aF0.0
aF0.0
aF0.0
aF1.0
aF1.0
aF1.0
aF1.0
aF0.0
aF0.0
aF0.0
aF0.0
aF0.8537
aF0.8125
aF0.8929
aF0.9332
aF0.0
aF0.0
aF0.0
aF0.0
aF0.0976
aF0.1782
aF0.1071
aF0.0668
aF0.0244
aF0.0078
aF0.0
aF0.0
aF0.0
aF0.0
aF0.0
aF0.0
aF0.0244
aF0.0015
aF0.0
aF0.0
aF0.0093
aF0.0107
aF0.0009
aF0.0013
aF1.0
aF1.0
aF0.0
aF0.0
aF0.0
aF0.0
aF0.0
aF0.0
aF0.0
aF0.0
aF0.0
aF0.0
aF0.0
aF0.0
aF0.0
aF0.0
aF0.0
aF0.0
aF0.0
aF0.0
aF0.6
aF0.8773
aF0.0667
aF0.0036
aF0.3333
aF0.1191
aF0.0
aF0.0
aF0.0
aF0.0
asS'com.arroyaapps.beautifulbotanicalgardens'
p179
(lp180
F0.9391499999999999
aF0.0
aF0.0
aF0.0
aF0.0
aF0.0
aF0.0552
aF0.0
aF0.0056500000000000005
aF0.0238
aF0.0
aF0.9762
aF0.0179
aF0.0
aF0.9821
aF0.0057
aF0.0
aF0.9943
aF0.0057
aF0.0
aF0.9943
aF0.5
aF0.0
aF0.5
aF0.0
aF0.7004999999999999
aF0.0
aF0.2995
aF0.0
aF0.0
aF0.0
aF0.0
aF0.0
aF0.0
aF0.0
aF0.0
aF0.1187
aF0.0801
aF0.2299
aF0.05375
aF0.25
aF0.7778
aF0.06125
aF0.5499
aF0.0
aF0.0
aF0.0
aF0.0
aF0.0
aF0.0
aF0.0
aF0.0
aF0.0
aF0.0
aF0.0
aF0.0
aF0.975
aF0.9938
aF1.0
aF1.0
aF0.025
aF0.0062
aF0.0
aF0.0
aF0.9259
aF0.92115
aF0.9524
aF0.95245
aF0.0
aF0.0
aF0.0
aF0.0
aF0.0741
aF0.07885
aF0.0476
aF0.04755
aF0.0
aF0.0
aF0.0
aF0.0
aF0.0
aF0.0
aF0.0
aF0.0
aF0.0
aF0.0
aF0.0
aF0.0
aF0.0059
aF0.003
aF0.0014
aF0.0014
aF1.0
aF1.0
aF0.0
aF0.0
aF0.0
aF0.0
aF0.0
aF0.0
aF0.0
aF0.0
aF0.0
aF0.0
aF1.0
aF1.0
aF0.0
aF0.0
aF0.0
aF0.0
aF0.0
aF0.0
aF0.0
aF0.0
aF0.0
aF0.0
aF0.0
aF0.0
aF0.0
aF0.0
aF0.0
aF0.0
asS'com.gzlok.papa.show'
p181
(lp182
F0.0
aF0.0
aF0.0
aF0.8351
aF0.1649
aF0.0
aF0.0
aF0.0
aF0.0
aF0.0
aF0.6475
aF0.3525
aF0.0
aF0.719
aF0.281
aF0.0
aF0.1656
aF0.8344
aF0.0
aF0.1656
aF0.8344
aF0.375
aF0.375
aF0.25
aF0.0
aF0.8864
aF0.1064
aF0.0072
aF0.0
aF0.0
aF0.0
aF0.9808
aF0.0192
aF0.0
aF0.0192
aF0.0
aF0.0824
aF0.0165
aF0.0209
aF0.0024
aF0.15
aF0.5417
aF0.0172
aF0.0982
aF0.0167
aF0.0014
aF0.0
aF0.0
aF0.0333
aF0.0046
aF0.0
aF0.0
aF0.0
aF0.0
aF0.0
aF0.0
aF0.925
aF0.9925
aF0.9444
aF0.9975
aF0.025
aF0.0014
aF0.0556
aF0.0025
aF0.5417
aF0.2603
aF0.5385
aF0.2824
aF0.0833
aF0.1987
aF0.0769
aF0.1961
aF0.1667
aF0.3165
aF0.0769
aF0.0667
aF0.0
aF0.0
aF0.0
aF0.0
aF0.0417
aF0.0008
aF0.0769
aF0.0039
aF0.1667
aF0.2237
aF0.2308
aF0.451
aF0.0096
aF0.0041
aF0.0002
aF0.0002
aF0.3571
aF0.5
aF0.3571
aF0.4234
aF0.0714
aF0.0045
aF0.0
aF0.0
aF0.2143
aF0.0721
aF0.0
aF0.0
aF0.5
aF0.4976
aF0.0
aF0.0
aF0.1667
aF0.0047
aF0.0
aF0.0
aF0.0
aF0.0
aF0.0
aF0.0
aF0.3333
aF0.4976
aF0.0
aF0.0
aF0.0
aF0.0
asS'com.zfay.IndberstellarChadtan6'
p183
(lp184
F0.0
aF0.0
aF0.0
aF0.9294
aF0.0706
aF0.0
aF0.0
aF0.0
aF0.0
aF0.0
aF0.3208
aF0.6792
aF0.0
aF0.3544
aF0.6456
aF0.0
aF0.071
aF0.929
aF0.0
aF0.0711
aF0.9289
aF0.0
aF0.0
aF1.0
aF0.0
aF0.0
aF0.0
aF1.0
aF0.0
aF1.0
aF0.0
aF0.0
aF0.0
aF0.0
aF0.0
aF0.0
aF0.1807
aF0.0301
aF0.0631
aF0.0049
aF0.3667
aF1.0
aF0.1448
aF0.469
aF0.0
aF0.0
aF0.0
aF0.0
aF0.0
aF0.0
aF0.0
aF0.0
aF0.0
aF0.0
aF0.0
aF0.0
aF0.9333
aF0.9755
aF1.0
aF1.0
aF0.0667
aF0.0245
aF0.0
aF0.0
aF0.8
aF0.8415
aF0.8
aF0.9954
aF0.0
aF0.0
aF0.0
aF0.0
aF0.0
aF0.0
aF0.0
aF0.0
aF0.0
aF0.0
aF0.0
aF0.0
aF0.0
aF0.0
aF0.0
aF0.0
aF0.2
aF0.1585
aF0.2
aF0.0046
aF0.0181
aF0.006
aF0.0008
aF0.0008
aF0.0
aF0.0
aF0.6667
aF0.9867
aF0.3333
aF0.0133
aF0.0
aF0.0
aF0.0
aF0.0
aF0.0
aF0.0
aF0.0
aF0.0
aF0.0
aF0.0
aF0.0
aF0.0
aF0.0
aF0.0
aF1.0
aF1.0
aF0.0
aF0.0
aF0.0
aF0.0
aF0.0
aF0.0
aF0.0
aF0.0
asS'com.aaronbalderapps.crochetpursedesignideas'
p185
(lp186
F0.9384
aF0.0
aF0.0
aF0.0
aF0.0
aF0.0
aF0.0559
aF0.0
aF0.0057
aF0.0238
aF0.0
aF0.9762
aF0.0179
aF0.0
aF0.9821
aF0.0058
aF0.0
aF0.9942
aF0.0058
aF0.0
aF0.9942
aF0.5
aF0.0
aF0.5
aF0.0
aF0.7
aF0.0
aF0.3
aF0.0
aF0.0
aF0.0
aF0.0
aF0.0
aF0.0
aF0.0
aF0.0
aF0.119
aF0.0804
aF0.2317
aF0.0545
aF0.25
aF0.7778
aF0.0616
aF0.55
aF0.0
aF0.0
aF0.0
aF0.0
aF0.0
aF0.0
aF0.0
aF0.0
aF0.0
aF0.0
aF0.0
aF0.0
aF0.975
aF0.9938
aF1.0
aF1.0
aF0.025
aF0.0062
aF0.0
aF0.0
aF0.9259
aF0.9211
aF0.9524
aF0.9524
aF0.0
aF0.0
aF0.0
aF0.0
aF0.0741
aF0.0789
aF0.0476
aF0.0476
aF0.0
aF0.0
aF0.0
aF0.0
aF0.0
aF0.0
aF0.0
aF0.0
aF0.0
aF0.0
aF0.0
aF0.0
aF0.006
aF0.003
aF0.0014
aF0.0014
aF1.0
aF1.0
aF0.0
aF0.0
aF0.0
aF0.0
aF0.0
aF0.0
aF0.0
aF0.0
aF0.0
aF0.0
aF1.0
aF1.0
aF0.0
aF0.0
aF0.0
aF0.0
aF0.0
aF0.0
aF0.0
aF0.0
aF0.0
aF0.0
aF0.0
aF0.0
aF0.0
aF0.0
aF0.0
aF0.0
asS'com.padyun.spring'
p187
(lp188
F0.8219
aF0.0026
aF0.0
aF0.0672
aF0.0435
aF0.0005
aF0.041
aF0.0071
aF0.0162
aF0.0903
aF0.3064
aF0.6033
aF0.0904
aF0.27
aF0.6396
aF0.0177
aF0.0563
aF0.9259
aF0.0177
aF0.0564
aF0.9259
aF1.0
aF0.0
aF0.0
aF0.0
aF1.0
aF0.0
aF0.0
aF0.0
aF0.8438
aF0.0
aF0.0
aF0.1562
aF0.0
aF0.8438
aF0.0
aF0.0976
aF0.0238
aF0.2423
aF0.0202
aF0.125
aF0.5135
aF0.0115
aF0.1569
aF0.0
aF0.0
aF0.0
aF0.0
aF0.0132
aF0.0002
aF0.0
aF0.0
aF0.0
aF0.0
aF0.0
aF0.0
aF0.9803
aF0.9998
aF0.9474
aF0.9966
aF0.0066
aF0.0001
aF0.0526
aF0.0034
aF0.8108
aF0.3568
aF0.8947
aF0.7113
aF0.027
aF0.0163
aF0.0
aF0.0
aF0.1081
aF0.0929
aF0.1053
aF0.2887
aF0.027
aF0.0168
aF0.0
aF0.0
aF0.0
aF0.0
aF0.0
aF0.0
aF0.027
aF0.517
aF0.0
aF0.0
aF0.0186
aF0.0295
aF0.0029
aF0.0337
aF0.8966
aF0.9834
aF0.1034
aF0.0166
aF0.0
aF0.0
aF0.0
aF0.0
aF0.0
aF0.0
aF0.0
aF0.0
aF0.0
aF0.0
aF0.0
aF0.0
aF0.0
aF0.0
aF0.0
aF0.0
aF0.0217
aF0.0006
aF0.0
aF0.0
aF0.8261
aF0.9639
aF0.0
aF0.0
aF0.1522
aF0.0356
asS'com.zdeffejoyinn.zhuaniqiu'
p189
(lp190
F0.0
aF0.0
aF0.0
aF0.8206
aF0.1794
aF0.0
aF0.0
aF0.0
aF0.0
aF0.0
aF0.3514
aF0.6486
aF0.0
aF0.3333
aF0.6667
aF0.0
aF0.1803
aF0.8197
aF0.0
aF0.1811
aF0.8189
aF0.0
aF0.0
aF1.0
aF0.0
aF0.0
aF0.0
aF1.0
aF0.0
aF0.0
aF0.0
aF0.0
aF0.0
aF0.0
aF0.0
aF0.0
aF0.2435
aF0.0261
aF0.2465
aF0.0179
aF0.1071
aF1.0
aF0.0378
aF0.0086
aF0.0
aF0.0
aF0.0
aF0.0
aF0.0
aF0.0
aF0.0
aF0.0
aF0.0
aF0.0
aF0.0
aF0.0
aF0.9643
aF0.9811
aF1.0
aF1.0
aF0.0357
aF0.0189
aF0.0
aF0.0
aF0.6667
aF0.9943
aF0.6667
aF0.6667
aF0.0
aF0.0
aF0.0
aF0.0
aF0.0
aF0.0
aF0.0
aF0.0
aF0.0
aF0.0
aF0.0
aF0.0
aF0.0
aF0.0
aF0.0
aF0.0
aF0.3333
aF0.0057
aF0.3333
aF0.3333
aF0.0174
aF0.0087
aF0.0047
aF0.0047
aF0.0
aF0.0
aF1.0
aF1.0
aF0.0
aF0.0
aF0.0
aF0.0
aF0.0
aF0.0
aF0.0
aF0.0
aF1.0
aF1.0
aF0.0
aF0.0
aF0.0
aF0.0
aF0.0
aF0.0
aF0.0
aF0.0
aF0.0
aF0.0
aF0.0
aF0.0
aF0.0
aF0.0
aF0.0
aF0.0
asS'com.LaceDress.JoyceBurklin'
p191
(lp192
F0.9392
aF0.0
aF0.0
aF0.0
aF0.0
aF0.0
aF0.0552
aF0.0
aF0.0057
aF0.0238
aF0.0
aF0.9762
aF0.0179
aF0.0
aF0.9821
aF0.0057
aF0.0
aF0.9943
aF0.0057
aF0.0
aF0.9943
aF0.5
aF0.0
aF0.5
aF0.0
aF0.6998
aF0.0
aF0.3002
aF0.0
aF0.0
aF0.0
aF0.0
aF0.0
aF0.0
aF0.0
aF0.0
aF0.1187
aF0.0801
aF0.2301
aF0.0537
aF0.25
aF0.7778
aF0.0611
aF0.5499
aF0.0
aF0.0
aF0.0
aF0.0
aF0.0
aF0.0
aF0.0
aF0.0
aF0.0
aF0.0
aF0.0
aF0.0
aF0.975
aF0.9939
aF1.0
aF1.0
aF0.025
aF0.0061
aF0.0
aF0.0
aF0.9259
aF0.921
aF0.9524
aF0.9522
aF0.0
aF0.0
aF0.0
aF0.0
aF0.0741
aF0.079
aF0.0476
aF0.0478
aF0.0
aF0.0
aF0.0
aF0.0
aF0.0
aF0.0
aF0.0
aF0.0
aF0.0
aF0.0
aF0.0
aF0.0
aF0.0059
aF0.003
aF0.0014
aF0.0014
aF1.0
aF1.0
aF0.0
aF0.0
aF0.0
aF0.0
aF0.0
aF0.0
aF0.0
aF0.0
aF0.0
aF0.0
aF1.0
aF1.0
aF0.0
aF0.0
aF0.0
aF0.0
aF0.0
aF0.0
aF0.0
aF0.0
aF0.0
aF0.0
aF0.0
aF0.0
aF0.0
aF0.0
aF0.0
aF0.0
asS'com.mozgame.fruitmania'
p193
(lp194
F0.0
aF0.0
aF0.0
aF0.7187
aF0.2813
aF0.0
aF0.0
aF0.0
aF0.0
aF0.0
aF0.375
aF0.625
aF0.0
aF0.5
aF0.5
aF0.0
aF0.2821
aF0.7179
aF0.0
aF0.2843
aF0.7157
aF0.0
aF0.0
aF0.0
aF0.0
aF0.0
aF0.0
aF0.0
aF0.0
aF0.0
aF0.0
aF0.0
aF0.0
aF0.0
aF0.0
aF0.0
aF0.1205
aF0.0
aF0.1326
aF0.0
aF0.0
aF0.0
aF0.0
aF0.0
aF0.0
aF0.0
aF0.0
aF0.0
aF0.0
aF0.0
aF0.0
aF0.0
aF0.0
aF0.0
aF0.0
aF0.0
aF1.0
aF1.0
aF0.0
aF0.0
aF0.0
aF0.0
aF0.0
aF0.0
aF0.0
aF0.0
aF0.0
aF0.0
aF0.0
aF0.0
aF0.0
aF0.0
aF0.0
aF0.0
aF0.0
aF0.0
aF0.0
aF0.0
aF0.0
aF0.0
aF0.0
aF0.0
aF0.0
aF0.0
aF0.0
aF0.0
aF0.0
aF0.0
aF0.0241
aF0.012
aF0.0079
aF0.0078
aF0.0
aF0.0
aF1.0
aF1.0
aF0.0
aF0.0
aF0.0
aF0.0
aF0.0
aF0.0
aF0.0
aF0.0
aF0.0
aF0.0
aF0.0
aF0.0
aF0.0
aF0.0
aF0.0
aF0.0
aF1.0
aF1.0
aF0.0
aF0.0
aF0.0
aF0.0
aF0.0
aF0.0
aF0.0
aF0.0
asS'com.CeilingInteriorDesign.Nephilim'
p195
(lp196
F0.9493
aF0.0
aF0.0
aF0.0
aF0.0
aF0.0
aF0.0459
aF0.0
aF0.0047
aF0.0201
aF0.0
aF0.9799
aF0.019
aF0.0
aF0.981
aF0.0047
aF0.0
aF0.9953
aF0.0048
aF0.0
aF0.9952
aF1.0
aF0.0
aF0.0
aF0.0
aF1.0
aF0.0
aF0.0
aF0.0
aF0.0
aF0.0
aF0.0
aF0.0
aF0.0
aF0.0
aF0.0
aF0.1073
aF0.0442
aF0.0808
aF0.0196
aF0.3529
aF0.9286
aF0.1167
aF0.7181
aF0.0
aF0.0
aF0.0
aF0.0
aF0.0
aF0.0
aF0.0
aF0.0
aF0.0
aF0.0
aF0.0
aF0.0
aF1.0
aF1.0
aF1.0
aF1.0
aF0.0
aF0.0
aF0.0
aF0.0
aF0.9286
aF0.9398
aF0.9231
aF0.9167
aF0.0
aF0.0
aF0.0
aF0.0
aF0.0714
aF0.0602
aF0.0769
aF0.0833
aF0.0
aF0.0
aF0.0
aF0.0
aF0.0
aF0.0
aF0.0
aF0.0
aF0.0
aF0.0
aF0.0
aF0.0
aF0.0063
aF0.0032
aF0.0012
aF0.0012
aF1.0
aF1.0
aF0.0
aF0.0
aF0.0
aF0.0
aF0.0
aF0.0
aF0.0
aF0.0
aF0.0
aF0.0
aF1.0
aF1.0
aF0.0
aF0.0
aF0.0
aF0.0
aF0.0
aF0.0
aF0.0
aF0.0
aF0.0
aF0.0
aF0.0
aF0.0
aF0.0
aF0.0
aF0.0
aF0.0
asS'com.rrg.bubblewonders'
p197
(lp198
F0.0
aF0.0
aF0.0
aF0.7187
aF0.2813
aF0.0
aF0.0
aF0.0
aF0.0
aF0.0
aF0.375
aF0.625
aF0.0
aF0.5
aF0.5
aF0.0
aF0.2823
aF0.7177
aF0.0
aF0.2845
aF0.7155
aF0.0
aF0.0
aF0.0
aF0.0
aF0.0
aF0.0
aF0.0
aF0.0
aF0.0
aF0.0
aF0.0
aF0.0
aF0.0
aF0.0
aF0.0
aF0.1205
aF0.0
aF0.1326
aF0.0
aF0.0
aF0.0
aF0.0
aF0.0
aF0.0
aF0.0
aF0.0
aF0.0
aF0.0
aF0.0
aF0.0
aF0.0
aF0.0
aF0.0
aF0.0
aF0.0
aF1.0
aF1.0
aF0.0
aF0.0
aF0.0
aF0.0
aF0.0
aF0.0
aF0.0
aF0.0
aF0.0
aF0.0
aF0.0
aF0.0
aF0.0
aF0.0
aF0.0
aF0.0
aF0.0
aF0.0
aF0.0
aF0.0
aF0.0
aF0.0
aF0.0
aF0.0
aF0.0
aF0.0
aF0.0
aF0.0
aF0.0
aF0.0
aF0.0241
aF0.012
aF0.0079
aF0.0078
aF0.0
aF0.0
aF1.0
aF1.0
aF0.0
aF0.0
aF0.0
aF0.0
aF0.0
aF0.0
aF0.0
aF0.0
aF0.0
aF0.0
aF0.0
aF0.0
aF0.0
aF0.0
aF0.0
aF0.0
aF1.0
aF1.0
aF0.0
aF0.0
aF0.0
aF0.0
aF0.0
aF0.0
aF0.0
aF0.0
asS'activity.cs.csdisinvkxunias'
p199
(lp200
F0.0
aF0.0005
aF0.0
aF0.8909
aF0.0996
aF0.0
aF0.0085
aF0.0005
aF0.0
aF0.0125
aF0.3875
aF0.6
aF0.008
aF0.4183
aF0.5737
aF0.0
aF0.1013
aF0.8987
aF0.0
aF0.1014
aF0.8986
aF0.3333
aF0.0
aF0.6667
aF0.0
aF0.8079
aF0.0
aF0.1921
aF0.0
aF0.0
aF0.0
aF0.0
aF0.0
aF0.0
aF0.0
aF0.0
aF0.1853
aF0.0309
aF0.1086
aF0.0081
aF0.2917
aF0.75
aF0.073
aF0.2626
aF0.0
aF0.0
aF0.0
aF0.0
aF0.0
aF0.0
aF0.0
aF0.0
aF0.0
aF0.0
aF0.0
aF0.0
aF0.9583
aF0.9852
aF1.0
aF1.0
aF0.0417
aF0.0148
aF0.0
aF0.0
aF0.625
aF0.4119
aF0.8333
aF0.9961
aF0.0
aF0.0
aF0.0
aF0.0
aF0.25
aF0.3913
aF0.0
aF0.0
aF0.0
aF0.0
aF0.0
aF0.0
aF0.0
aF0.0
aF0.0
aF0.0
aF0.125
aF0.1967
aF0.1667
aF0.0039
aF0.0232
aF0.0077
aF0.0011
aF0.0011
aF0.3333
aF0.4924
aF0.3333
aF0.4924
aF0.3333
aF0.0152
aF0.0
aF0.0
aF0.0
aF0.0
aF0.0
aF0.0
aF0.5
aF0.5
aF0.0
aF0.0
aF0.0
aF0.0
aF0.0
aF0.0
aF0.0
aF0.0
aF0.0
aF0.0
aF0.5
aF0.5
aF0.0
aF0.0
aF0.0
aF0.0
asS'com.rrg.bubblequest'
p201
(lp202
F0.0
aF0.0
aF0.0
aF0.7164999999999999
aF0.28350000000000003
aF0.0
aF0.0
aF0.0
aF0.0
aF0.0
aF0.375
aF0.625
aF0.0
aF0.502
aF0.498
aF0.0
aF0.28426666666666667
aF0.7157333333333332
aF0.0
aF0.2865
aF0.7135000000000001
aF0.0
aF0.0
aF0.0
aF0.0
aF0.0
aF0.0
aF0.0
aF0.0
aF0.0
aF0.0
aF0.0
aF0.0
aF0.0
aF0.0
aF0.0
aF0.12
aF0.0
aF0.1338
aF0.0
aF0.0
aF0.0
aF0.0
aF0.0
aF0.0
aF0.0
aF0.0
aF0.0
aF0.0
aF0.0
aF0.0
aF0.0
aF0.0
aF0.0
aF0.0
aF0.0
aF1.0
aF1.0
aF0.0
aF0.0
aF0.0
aF0.0
aF0.0
aF0.0
aF0.0
aF0.0
aF0.0
aF0.0
aF0.0
aF0.0
aF0.0
aF0.0
aF0.0
aF0.0
aF0.0
aF0.0
aF0.0
aF0.0
aF0.0
aF0.0
aF0.0
aF0.0
aF0.0
aF0.0
aF0.0
aF0.0
aF0.0
aF0.0
aF0.024000000000000004
aF0.011966666666666667
aF0.0078000000000000005
aF0.0077333333333333325
aF0.0
aF0.0
aF1.0
aF1.0
aF0.0
aF0.0
aF0.0
aF0.0
aF0.0
aF0.0
aF0.0
aF0.0
aF0.0
aF0.0
aF0.0
aF0.0
aF0.0
aF0.0
aF0.0
aF0.0
aF1.0
aF1.0
aF0.0
aF0.0
aF0.0
aF0.0
aF0.0
aF0.0
aF0.0
aF0.0
asS'com.aaronbalderapps.modernceilingdesigns'
p203
(lp204
F0.9381
aF0.0
aF0.0
aF0.0
aF0.0
aF0.0
aF0.0562
aF0.0
aF0.0058
aF0.0238
aF0.0
aF0.9762
aF0.0179
aF0.0
aF0.9821
aF0.0058
aF0.0
aF0.9942
aF0.0058
aF0.0
aF0.9942
aF0.5
aF0.0
aF0.5
aF0.0
aF0.7012
aF0.0
aF0.2988
aF0.0
aF0.0
aF0.0
aF0.0
aF0.0
aF0.0
aF0.0
aF0.0
aF0.119
aF0.0804
aF0.2317
aF0.0546
aF0.25
aF0.7778
aF0.0616
aF0.5496
aF0.0
aF0.0
aF0.0
aF0.0
aF0.0
aF0.0
aF0.0
aF0.0
aF0.0
aF0.0
aF0.0
aF0.0
aF0.975
aF0.9938
aF1.0
aF1.0
aF0.025
aF0.0062
aF0.0
aF0.0
aF0.9259
aF0.9213
aF0.9524
aF0.9525
aF0.0
aF0.0
aF0.0
aF0.0
aF0.0741
aF0.0787
aF0.0476
aF0.0475
aF0.0
aF0.0
aF0.0
aF0.0
aF0.0
aF0.0
aF0.0
aF0.0
aF0.0
aF0.0
aF0.0
aF0.0
aF0.006
aF0.003
aF0.0015
aF0.0014
aF1.0
aF1.0
aF0.0
aF0.0
aF0.0
aF0.0
aF0.0
aF0.0
aF0.0
aF0.0
aF0.0
aF0.0
aF1.0
aF1.0
aF0.0
aF0.0
aF0.0
aF0.0
aF0.0
aF0.0
aF0.0
aF0.0
aF0.0
aF0.0
aF0.0
aF0.0
aF0.0
aF0.0
aF0.0
aF0.0
asS'com.rrg.bubbleshootmania.free'
p205
(lp206
F0.0
aF0.0
aF0.0
aF0.7163
aF0.2837
aF0.0
aF0.0
aF0.0
aF0.0
aF0.0
aF0.3714
aF0.6286
aF0.0
aF0.5057
aF0.4943
aF0.0
aF0.2845
aF0.7155
aF0.0
aF0.2867
aF0.7133
aF0.0
aF0.0
aF0.0
aF1.0
aF0.0
aF0.0
aF0.0
aF1.0
aF0.0
aF0.0
aF0.0
aF0.0
aF0.0
aF0.0
aF0.0
aF0.125
aF0.0
aF0.1416
aF0.0
aF0.0
aF0.0
aF0.0
aF0.0
aF0.0
aF0.0
aF0.0
aF0.0
aF0.0
aF0.0
aF0.0
aF0.0
aF0.0
aF0.0
aF0.0
aF0.0
aF1.0
aF1.0
aF0.0
aF0.0
aF0.0
aF0.0
aF0.0
aF0.0
aF0.0
aF0.0
aF0.0
aF0.0
aF0.0
aF0.0
aF0.0
aF0.0
aF0.0
aF0.0
aF0.0
aF0.0
aF0.0
aF0.0
aF0.0
aF0.0
aF0.0
aF0.0
aF0.0
aF0.0
aF0.0
aF0.0
aF0.0
aF0.0
aF0.0227
aF0.0114
aF0.0075
aF0.0075
aF0.0
aF0.0
aF1.0
aF1.0
aF0.0
aF0.0
aF0.0
aF0.0
aF0.0
aF0.0
aF0.0
aF0.0
aF0.0
aF0.0
aF0.0
aF0.0
aF0.0
aF0.0
aF0.0
aF0.0
aF1.0
aF1.0
aF0.0
aF0.0
aF0.0
aF0.0
aF0.0
aF0.0
aF0.0
aF0.0
asS'com.blood.zombiesekjxm'
p207
(lp208
F0.0
aF0.0
aF0.0
aF0.9473
aF0.0527
aF0.0
aF0.0
aF0.0
aF0.0
aF0.0
aF0.3621
aF0.6379
aF0.0
aF0.3333
aF0.6667
aF0.0
aF0.0674
aF0.9326
aF0.0
aF0.0675
aF0.9325
aF0.5
aF0.0
aF0.5
aF0.0
aF0.4615
aF0.0
aF0.5385
aF0.0
aF0.0
aF0.0
aF0.0
aF0.0
aF0.0
aF0.0
aF0.0
aF0.2331
aF0.0307
aF0.0708
aF0.0121
aF0.2895
aF1.0
aF0.1065
aF0.1892
aF0.0
aF0.0
aF0.0
aF0.0
aF0.0
aF0.0
aF0.0
aF0.0
aF0.0
aF0.0
aF0.0
aF0.0
aF0.9737
aF0.9861
aF1.0
aF1.0
aF0.0263
aF0.0139
aF0.0
aF0.0
aF0.8
aF0.8919
aF0.8
aF0.8571
aF0.0
aF0.0
aF0.0
aF0.0
aF0.0
aF0.0
aF0.0
aF0.0
aF0.0
aF0.0
aF0.0
aF0.0
aF0.0
aF0.0
aF0.0
aF0.0
aF0.2
aF0.1081
aF0.2
aF0.1429
aF0.0184
aF0.0061
aF0.0023
aF0.001
aF0.0
aF0.0
aF1.0
aF1.0
aF0.0
aF0.0
aF0.0
aF0.0
aF0.0
aF0.0
aF0.0
aF0.0
aF1.0
aF1.0
aF0.0
aF0.0
aF0.0
aF0.0
aF0.0
aF0.0
aF0.0
aF0.0
aF0.0
aF0.0
aF0.0
aF0.0
aF0.0
aF0.0
aF0.0
aF0.0
asS'com.arroyaapps.bathtubdesignideas'
p209
(lp210
F0.9393
aF0.0
aF0.0
aF0.0
aF0.0
aF0.0
aF0.0551
aF0.0
aF0.0056
aF0.0238
aF0.0
aF0.9762
aF0.0179
aF0.0
aF0.9821
aF0.0057
aF0.0
aF0.9943
aF0.0057
aF0.0
aF0.9943
aF0.5
aF0.0
aF0.5
aF0.0
aF0.7
aF0.0
aF0.3
aF0.0
aF0.0
aF0.0
aF0.0
aF0.0
aF0.0
aF0.0
aF0.0
aF0.1187
aF0.0801
aF0.2299
aF0.0537
aF0.25
aF0.7778
aF0.0613
aF0.5503
aF0.0
aF0.0
aF0.0
aF0.0
aF0.0
aF0.0
aF0.0
aF0.0
aF0.0
aF0.0
aF0.0
aF0.0
aF0.975
aF0.9938
aF1.0
aF1.0
aF0.025
aF0.0062
aF0.0
aF0.0
aF0.9259
aF0.9211
aF0.9524
aF0.9524
aF0.0
aF0.0
aF0.0
aF0.0
aF0.0741
aF0.0789
aF0.0476
aF0.0476
aF0.0
aF0.0
aF0.0
aF0.0
aF0.0
aF0.0
aF0.0
aF0.0
aF0.0
aF0.0
aF0.0
aF0.0
aF0.0059
aF0.003
aF0.0014
aF0.0014
aF1.0
aF1.0
aF0.0
aF0.0
aF0.0
aF0.0
aF0.0
aF0.0
aF0.0
aF0.0
aF0.0
aF0.0
aF1.0
aF1.0
aF0.0
aF0.0
aF0.0
aF0.0
aF0.0
aF0.0
aF0.0
aF0.0
aF0.0
aF0.0
aF0.0
aF0.0
aF0.0
aF0.0
aF0.0
aF0.0
asS'com.app.mathsformulas'
p211
(lp212
F0.9762
aF0.0001
aF0.001
aF0.0163
aF0.0019
aF0.0
aF0.004
aF0.0003
aF0.0003
aF0.0193
aF0.008
aF0.9727
aF0.0099
aF0.0056
aF0.9846
aF0.0014
aF0.0022
aF0.9964
aF0.0014
aF0.0022
aF0.9964
aF0.875
aF0.0
aF0.125
aF0.0
aF0.9982
aF0.0
aF0.0018
aF0.0
aF0.8694
aF0.0
aF0.0
aF0.1306
aF0.0
aF0.8694
aF0.0
aF0.0872
aF0.0222
aF0.2046
aF0.0109
aF0.1765
aF0.4615
aF0.0162
aF0.3254
aF0.0
aF0.0
aF0.0
aF0.0
aF0.0
aF0.0
aF0.0
aF0.0
aF0.0
aF0.0
aF0.0
aF0.0
aF0.9951
aF0.9996
aF1.0
aF1.0
aF0.0049
aF0.0004
aF0.0
aF0.0
aF0.8269
aF0.8415
aF0.9167
aF0.9752
aF0.0192
aF0.0154
aF0.0
aF0.0
aF0.0385
aF0.0602
aF0.0417
aF0.0033
aF0.0192
aF0.0124
aF0.0417
aF0.0215
aF0.0769
aF0.008
aF0.0
aF0.0
aF0.0192
aF0.0626
aF0.0
aF0.0
aF0.0115
aF0.0137
aF0.0013
aF0.0118
aF1.0
aF1.0
aF0.0
aF0.0
aF0.0
aF0.0
aF0.0
aF0.0
aF0.0
aF0.0
aF0.0
aF0.0
aF0.0
aF0.0
aF0.0
aF0.0
aF0.0
aF0.0
aF0.0
aF0.0
aF0.0
aF0.0
aF0.0
aF0.0
aF1.0
aF1.0
aF0.0
aF0.0
aF0.0
aF0.0
asS'com.EasyCraftforKids.Nephilim'
p213
(lp214
F0.9494
aF0.0
aF0.0
aF0.0
aF0.0
aF0.0
aF0.0459
aF0.0
aF0.0047
aF0.0201
aF0.0
aF0.9799
aF0.019
aF0.0
aF0.981
aF0.0047
aF0.0
aF0.9953
aF0.0048
aF0.0
aF0.9952
aF1.0
aF0.0
aF0.0
aF0.0
aF1.0
aF0.0
aF0.0
aF0.0
aF0.0
aF0.0
aF0.0
aF0.0
aF0.0
aF0.0
aF0.0
aF0.1073
aF0.0442
aF0.0808
aF0.0196
aF0.3529
aF0.9286
aF0.1166
aF0.7182
aF0.0
aF0.0
aF0.0
aF0.0
aF0.0
aF0.0
aF0.0
aF0.0
aF0.0
aF0.0
aF0.0
aF0.0
aF1.0
aF1.0
aF1.0
aF1.0
aF0.0
aF0.0
aF0.0
aF0.0
aF0.9286
aF0.9397
aF0.9231
aF0.9167
aF0.0
aF0.0
aF0.0
aF0.0
aF0.0714
aF0.0603
aF0.0769
aF0.0833
aF0.0
aF0.0
aF0.0
aF0.0
aF0.0
aF0.0
aF0.0
aF0.0
aF0.0
aF0.0
aF0.0
aF0.0
aF0.0063
aF0.0032
aF0.0012
aF0.0012
aF1.0
aF1.0
aF0.0
aF0.0
aF0.0
aF0.0
aF0.0
aF0.0
aF0.0
aF0.0
aF0.0
aF0.0
aF1.0
aF1.0
aF0.0
aF0.0
aF0.0
aF0.0
aF0.0
aF0.0
aF0.0
aF0.0
aF0.0
aF0.0
aF0.0
aF0.0
aF0.0
aF0.0
aF0.0
aF0.0
asS'com.design.viralquiz'
p215
(lp216
F0.896
aF0.0
aF0.0
aF0.0766
aF0.0274
aF0.0
aF0.0
aF0.0
aF0.0
aF0.0
aF0.0748
aF0.9252
aF0.0
aF0.0818
aF0.9182
aF0.0
aF0.0276
aF0.9724
aF0.0
aF0.0278
aF0.9722
aF0.6667
aF0.0
aF0.3333
aF0.0
aF0.9771
aF0.0
aF0.0229
aF0.0
aF0.0
aF0.0
aF1.0
aF0.0
aF0.0
aF0.0
aF0.0
aF0.1093
aF0.0281
aF0.1372
aF0.0186
aF0.1622
aF0.3684
aF0.0764
aF0.3038
aF0.0
aF0.0
aF0.0
aF0.0
aF0.0
aF0.0
aF0.0
aF0.0
aF0.0
aF0.0
aF0.0
aF0.0
aF0.9865
aF0.9954
aF1.0
aF1.0
aF0.0135
aF0.0046
aF0.0
aF0.0
aF0.8421
aF0.8134
aF0.8571
aF0.7625
aF0.0526
aF0.0132
aF0.0
aF0.0
aF0.1053
aF0.1733
aF0.1429
aF0.2375
aF0.0
aF0.0
aF0.0
aF0.0
aF0.0
aF0.0
aF0.0
aF0.0
aF0.0
aF0.0
aF0.0
aF0.0
aF0.0118
aF0.0044
aF0.0034
aF0.0448
aF0.75
aF0.7855
aF0.25
aF0.2145
aF0.0
aF0.0
aF0.0
aF0.0
aF0.0
aF0.0
aF0.0
aF0.0
aF0.0
aF0.0
aF0.0
aF0.0
aF0.0
aF0.0
aF0.0
aF0.0
aF1.0
aF1.0
aF0.0
aF0.0
aF0.0
aF0.0
aF0.0
aF0.0
aF0.0
aF0.0
asS'rksystem.statusbook'
p217
(lp218
F0.654
aF0.0002
aF0.0
aF0.2134
aF0.091
aF0.0016
aF0.0285
aF0.0017
aF0.0096
aF0.0385
aF0.1891
aF0.7724
aF0.0287
aF0.1936
aF0.7777
aF0.0114
aF0.0935
aF0.8951
aF0.0114
aF0.0937
aF0.8949
aF0.4545
aF0.0
aF0.3636
aF0.1818
aF0.9575
aF0.0
aF0.0305
aF0.012
aF0.6395
aF0.0
aF0.0
aF0.3605
aF0.0
aF0.0
aF0.0
aF0.112
aF0.027
aF0.1979
aF0.0259
aF0.2632
aF0.6875
aF0.0772
aF0.3497
aF0.0
aF0.0
aF0.0
aF0.0
aF0.0
aF0.0
aF0.0
aF0.0
aF0.0
aF0.0
aF0.0
aF0.0
aF1.0
aF1.0
aF1.0
aF1.0
aF0.0
aF0.0
aF0.0
aF0.0
aF0.875
aF0.9437
aF0.9545
aF0.9994
aF0.0312
aF0.0106
aF0.0
aF0.0
aF0.0625
aF0.0362
aF0.0455
aF0.0006
aF0.0312
aF0.0095
aF0.0
aF0.0
aF0.0
aF0.0
aF0.0
aF0.0
aF0.0
aF0.0
aF0.0
aF0.0
aF0.0135
aF0.0143
aF0.003
aF0.0389
aF0.875
aF0.8774
aF0.125
aF0.1226
aF0.0
aF0.0
aF0.0
aF0.0
aF0.0
aF0.0
aF0.0
aF0.0
aF0.0
aF0.0
aF0.0
aF0.0
aF0.0
aF0.0
aF0.0
aF0.0
aF0.0588
aF0.0093
aF0.0
aF0.0
aF0.9412
aF0.9907
aF0.0
aF0.0
aF0.0
aF0.0
asS'shakira.abadi.fishingknots'
p219
(lp220
F0.9462
aF0.0
aF0.0
aF0.0
aF0.0
aF0.0
aF0.0488
aF0.0
aF0.005
aF0.0173
aF0.0
aF0.9827
aF0.013
aF0.0
aF0.987
aF0.005
aF0.0
aF0.995
aF0.0051
aF0.0
aF0.9949
aF0.5
aF0.0
aF0.5
aF0.0
aF0.7
aF0.0
aF0.3
aF0.0
aF0.0
aF0.0
aF0.0
aF0.0
aF0.0
aF0.0
aF0.0
aF0.0989
aF0.0366
aF0.1207
aF0.0249
aF0.1522
aF0.7647
aF0.1033
aF0.6997
aF0.0
aF0.0
aF0.0
aF0.0
aF0.0
aF0.0
aF0.0
aF0.0
aF0.0
aF0.0
aF0.0
aF0.0
aF0.9783
aF0.9932
aF1.0
aF1.0
aF0.0217
aF0.0068
aF0.0
aF0.0
aF0.8824
aF0.8019
aF0.9231
aF0.8571
aF0.0
aF0.0
aF0.0
aF0.0
aF0.1176
aF0.1981
aF0.0769
aF0.1429
aF0.0
aF0.0
aF0.0
aF0.0
aF0.0
aF0.0
aF0.0
aF0.0
aF0.0
aF0.0
aF0.0
aF0.0
aF0.0043
aF0.0022
aF0.0013
aF0.0013
aF1.0
aF1.0
aF0.0
aF0.0
aF0.0
aF0.0
aF0.0
aF0.0
aF0.0
aF0.0
aF0.0
aF0.0
aF1.0
aF1.0
aF0.0
aF0.0
aF0.0
aF0.0
aF0.0
aF0.0
aF0.0
aF0.0
aF0.0
aF0.0
aF0.0
aF0.0
aF0.0
aF0.0
aF0.0
aF0.0
asS'com.rrg.cookiemania'
p221
(lp222
F0.0
aF0.0
aF0.0
aF0.7258
aF0.2742
aF0.0
aF0.0
aF0.0
aF0.0
aF0.0
aF0.3714
aF0.6286
aF0.0
aF0.5
aF0.5
aF0.0
aF0.2751
aF0.7249
aF0.0
aF0.2772
aF0.7228
aF0.0
aF0.0
aF0.0
aF1.0
aF0.0
aF0.0
aF0.0
aF1.0
aF0.0
aF0.0
aF0.0
aF0.0
aF0.0
aF0.0
aF0.0
aF0.1264
aF0.0
aF0.1405
aF0.0
aF0.0
aF0.0
aF0.0
aF0.0
aF0.0
aF0.0
aF0.0
aF0.0
aF0.0
aF0.0
aF0.0
aF0.0
aF0.0
aF0.0
aF0.0
aF0.0
aF1.0
aF1.0
aF0.0
aF0.0
aF0.0
aF0.0
aF0.0
aF0.0
aF0.0
aF0.0
aF0.0
aF0.0
aF0.0
aF0.0
aF0.0
aF0.0
aF0.0
aF0.0
aF0.0
aF0.0
aF0.0
aF0.0
aF0.0
aF0.0
aF0.0
aF0.0
aF0.0
aF0.0
aF0.0
aF0.0
aF0.0
aF0.0
aF0.023
aF0.0115
aF0.0075
aF0.0074
aF0.0
aF0.0
aF1.0
aF1.0
aF0.0
aF0.0
aF0.0
aF0.0
aF0.0
aF0.0
aF0.0
aF0.0
aF0.0
aF0.0
aF0.0
aF0.0
aF0.0
aF0.0
aF0.0
aF0.0
aF1.0
aF1.0
aF0.0
aF0.0
aF0.0
aF0.0
aF0.0
aF0.0
aF0.0
aF0.0
asS'com.tankemplay.Interstellargfffd'
p223
(lp224
F0.0
aF0.0
aF0.0
aF0.9289
aF0.07110000000000001
aF0.0
aF0.0
aF0.0
aF0.0
aF0.0
aF0.3124
aF0.6876000000000001
aF0.0
aF0.33882500000000004
aF0.6611750000000001
aF0.0
aF0.071575
aF0.9284250000000001
aF0.0
aF0.0717
aF0.9283000000000001
aF0.0
aF0.0
aF1.0
aF0.0
aF0.0
aF0.0
aF1.0
aF0.0
aF1.0
aF0.0
aF0.0
aF0.0
aF0.0
aF0.0
aF0.0
aF0.190025
aF0.031674999999999995
aF0.06235
aF0.004925
aF0.375025
aF1.0
aF0.149475
aF0.46687500000000004
aF0.0
aF0.0
aF0.0
aF0.0
aF0.0
aF0.0
aF0.0
aF0.0
aF0.0
aF0.0
aF0.0
aF0.0
aF0.9333
aF0.9752500000000002
aF1.0
aF1.0
aF0.0667
aF0.02475
aF0.0
aF0.0
aF0.8
aF0.841375
aF0.8
aF0.870025
aF0.0
aF0.0
aF0.0
aF0.0
aF0.0
aF0.0
aF0.0
aF0.0
aF0.0
aF0.0
aF0.0
aF0.0
aF0.0
aF0.0
aF0.0
aF0.0
aF0.2
aF0.158625
aF0.2
aF0.129975
aF0.012674999999999999
aF0.00635
aF0.0008
aF0.0008
aF0.0
aF0.0
aF1.0
aF1.0
aF0.0
aF0.0
aF0.0
aF0.0
aF0.0
aF0.0
aF0.0
aF0.0
aF0.0
aF0.0
aF0.0
aF0.0
aF0.0
aF0.0
aF0.0
aF0.0
aF1.0
aF1.0
aF0.0
aF0.0
aF0.0
aF0.0
aF0.0
aF0.0
aF0.0
aF0.0
asS'com.HomeCeilingPaintIdea.JoyceBurklin'
p225
(lp226
F0.9393
aF0.0
aF0.0
aF0.0
aF0.0
aF0.0
aF0.0551
aF0.0
aF0.0057
aF0.0238
aF0.0
aF0.9762
aF0.0179
aF0.0
aF0.9821
aF0.0057
aF0.0
aF0.9943
aF0.0057
aF0.0
aF0.9943
aF0.5
aF0.0
aF0.5
aF0.0
aF0.6998
aF0.0
aF0.3002
aF0.0
aF0.0
aF0.0
aF0.0
aF0.0
aF0.0
aF0.0
aF0.0
aF0.1187
aF0.0801
aF0.2299
aF0.0538
aF0.25
aF0.7778
aF0.0613
aF0.5504
aF0.0
aF0.0
aF0.0
aF0.0
aF0.0
aF0.0
aF0.0
aF0.0
aF0.0
aF0.0
aF0.0
aF0.0
aF0.975
aF0.9938
aF1.0
aF1.0
aF0.025
aF0.0062
aF0.0
aF0.0
aF0.9259
aF0.9211
aF0.9524
aF0.9524
aF0.0
aF0.0
aF0.0
aF0.0
aF0.0741
aF0.0789
aF0.0476
aF0.0476
aF0.0
aF0.0
aF0.0
aF0.0
aF0.0
aF0.0
aF0.0
aF0.0
aF0.0
aF0.0
aF0.0
aF0.0
aF0.0059
aF0.003
aF0.0014
aF0.0014
aF1.0
aF1.0
aF0.0
aF0.0
aF0.0
aF0.0
aF0.0
aF0.0
aF0.0
aF0.0
aF0.0
aF0.0
aF1.0
aF1.0
aF0.0
aF0.0
aF0.0
aF0.0
aF0.0
aF0.0
aF0.0
aF0.0
aF0.0
aF0.0
aF0.0
aF0.0
aF0.0
aF0.0
aF0.0
aF0.0
asS'com.EmbroideryDesignIdeas.Nephilim'
p227
(lp228
F0.9495
aF0.0
aF0.0
aF0.0
aF0.0
aF0.0
aF0.0458
aF0.0
aF0.0047
aF0.0201
aF0.0
aF0.9799
aF0.019
aF0.0
aF0.981
aF0.0047
aF0.0
aF0.9953
aF0.0047
aF0.0
aF0.9953
aF1.0
aF0.0
aF0.0
aF0.0
aF1.0
aF0.0
aF0.0
aF0.0
aF0.0
aF0.0
aF0.0
aF0.0
aF0.0
aF0.0
aF0.0
aF0.1073
aF0.0442
aF0.0818
aF0.0196
aF0.3529
aF0.9286
aF0.1149
aF0.7158
aF0.0
aF0.0
aF0.0
aF0.0
aF0.0
aF0.0
aF0.0
aF0.0
aF0.0
aF0.0
aF0.0
aF0.0
aF1.0
aF1.0
aF1.0
aF1.0
aF0.0
aF0.0
aF0.0
aF0.0
aF0.9286
aF0.94
aF0.9231
aF0.9167
aF0.0
aF0.0
aF0.0
aF0.0
aF0.0714
aF0.06
aF0.0769
aF0.0833
aF0.0
aF0.0
aF0.0
aF0.0
aF0.0
aF0.0
aF0.0
aF0.0
aF0.0
aF0.0
aF0.0
aF0.0
aF0.0063
aF0.0032
aF0.0012
aF0.0012
aF1.0
aF1.0
aF0.0
aF0.0
aF0.0
aF0.0
aF0.0
aF0.0
aF0.0
aF0.0
aF0.0
aF0.0
aF1.0
aF1.0
aF0.0
aF0.0
aF0.0
aF0.0
aF0.0
aF0.0
aF0.0
aF0.0
aF0.0
aF0.0
aF0.0
aF0.0
aF0.0
aF0.0
aF0.0
aF0.0
asS'com.arroyaapps.highheelideas'
p229
(lp230
F0.9393
aF0.0
aF0.0
aF0.0
aF0.0
aF0.0
aF0.0551
aF0.0
aF0.0056
aF0.0238
aF0.0
aF0.9762
aF0.0179
aF0.0
aF0.9821
aF0.0057
aF0.0
aF0.9943
aF0.0057
aF0.0
aF0.9943
aF0.5
aF0.0
aF0.5
aF0.0
aF0.7
aF0.0
aF0.3
aF0.0
aF0.0
aF0.0
aF0.0
aF0.0
aF0.0
aF0.0
aF0.0
aF0.1187
aF0.0801
aF0.2299
aF0.0538
aF0.25
aF0.7778
aF0.0612
aF0.5498
aF0.0
aF0.0
aF0.0
aF0.0
aF0.0
aF0.0
aF0.0
aF0.0
aF0.0
aF0.0
aF0.0
aF0.0
aF0.975
aF0.9938
aF1.0
aF1.0
aF0.025
aF0.0062
aF0.0
aF0.0
aF0.9259
aF0.9211
aF0.9524
aF0.9524
aF0.0
aF0.0
aF0.0
aF0.0
aF0.0741
aF0.0789
aF0.0476
aF0.0476
aF0.0
aF0.0
aF0.0
aF0.0
aF0.0
aF0.0
aF0.0
aF0.0
aF0.0
aF0.0
aF0.0
aF0.0
aF0.0059
aF0.003
aF0.0014
aF0.0014
aF1.0
aF1.0
aF0.0
aF0.0
aF0.0
aF0.0
aF0.0
aF0.0
aF0.0
aF0.0
aF0.0
aF0.0
aF1.0
aF1.0
aF0.0
aF0.0
aF0.0
aF0.0
aF0.0
aF0.0
aF0.0
aF0.0
aF0.0
aF0.0
aF0.0
aF0.0
aF0.0
aF0.0
aF0.0
aF0.0
asS'com.mozgame.fruitjourney'
p231
(lp232
F0.0
aF0.0
aF0.0
aF0.7187
aF0.2813
aF0.0
aF0.0
aF0.0
aF0.0
aF0.0
aF0.375
aF0.625
aF0.0
aF0.5
aF0.5
aF0.0
aF0.282
aF0.718
aF0.0
aF0.2842
aF0.7158
aF0.0
aF0.0
aF0.0
aF0.0
aF0.0
aF0.0
aF0.0
aF0.0
aF0.0
aF0.0
aF0.0
aF0.0
aF0.0
aF0.0
aF0.0
aF0.1205
aF0.0
aF0.1327
aF0.0
aF0.0
aF0.0
aF0.0
aF0.0
aF0.0
aF0.0
aF0.0
aF0.0
aF0.0
aF0.0
aF0.0
aF0.0
aF0.0
aF0.0
aF0.0
aF0.0
aF1.0
aF1.0
aF0.0
aF0.0
aF0.0
aF0.0
aF0.0
aF0.0
aF0.0
aF0.0
aF0.0
aF0.0
aF0.0
aF0.0
aF0.0
aF0.0
aF0.0
aF0.0
aF0.0
aF0.0
aF0.0
aF0.0
aF0.0
aF0.0
aF0.0
aF0.0
aF0.0
aF0.0
aF0.0
aF0.0
aF0.0
aF0.0
aF0.0241
aF0.012
aF0.0079
aF0.0078
aF0.0
aF0.0
aF1.0
aF1.0
aF0.0
aF0.0
aF0.0
aF0.0
aF0.0
aF0.0
aF0.0
aF0.0
aF0.0
aF0.0
aF0.0
aF0.0
aF0.0
aF0.0
aF0.0
aF0.0
aF1.0
aF1.0
aF0.0
aF0.0
aF0.0
aF0.0
aF0.0
aF0.0
aF0.0
aF0.0
asS'shakira.abadi.belajarsandipramukafull'
p233
(lp234
F0.9387
aF0.0
aF0.0
aF0.0
aF0.0
aF0.0
aF0.0556
aF0.0
aF0.0057
aF0.0238
aF0.0
aF0.9762
aF0.0179
aF0.0
aF0.9821
aF0.0057
aF0.0
aF0.9943
aF0.0058
aF0.0
aF0.9942
aF0.5
aF0.0
aF0.5
aF0.0
aF0.6987
aF0.0
aF0.3013
aF0.0
aF0.0
aF0.0
aF0.0
aF0.0
aF0.0
aF0.0
aF0.0
aF0.119
aF0.0804
aF0.2319
aF0.0543
aF0.25
aF0.7778
aF0.0614
aF0.5492
aF0.0
aF0.0
aF0.0
aF0.0
aF0.0
aF0.0
aF0.0
aF0.0
aF0.0
aF0.0
aF0.0
aF0.0
aF0.975
aF0.9938
aF1.0
aF1.0
aF0.025
aF0.0062
aF0.0
aF0.0
aF0.9259
aF0.9206
aF0.9524
aF0.952
aF0.0
aF0.0
aF0.0
aF0.0
aF0.0741
aF0.0794
aF0.0476
aF0.048
aF0.0
aF0.0
aF0.0
aF0.0
aF0.0
aF0.0
aF0.0
aF0.0
aF0.0
aF0.0
aF0.0
aF0.0
aF0.006
aF0.003
aF0.0014
aF0.0014
aF1.0
aF1.0
aF0.0
aF0.0
aF0.0
aF0.0
aF0.0
aF0.0
aF0.0
aF0.0
aF0.0
aF0.0
aF1.0
aF1.0
aF0.0
aF0.0
aF0.0
aF0.0
aF0.0
aF0.0
aF0.0
aF0.0
aF0.0
aF0.0
aF0.0
aF0.0
aF0.0
aF0.0
aF0.0
aF0.0
asS'com.gzlok.show.yueba'
p235
(lp236
F0.0
aF0.0
aF0.0
aF0.7899
aF0.2101
aF0.0
aF0.0
aF0.0
aF0.0
aF0.0
aF0.6611
aF0.3389
aF0.0
aF0.7253
aF0.2747
aF0.0
aF0.2109
aF0.7891
aF0.0
aF0.2109
aF0.7891
aF0.6
aF0.4
aF0.0
aF0.0
aF0.9046
aF0.0954
aF0.0
aF0.0
aF0.0
aF0.0
aF0.9767
aF0.0233
aF0.0
aF0.0233
aF0.0
aF0.0821
aF0.0128
aF0.0249
aF0.0033
aF0.1391
aF0.4444
aF0.0202
aF0.0856
aF0.0174
aF0.0005
aF0.0
aF0.0
aF0.0348
aF0.0046
aF0.0
aF0.0
aF0.0
aF0.0
aF0.0
aF0.0
aF0.9217
aF0.9925
aF0.9375
aF0.9977
aF0.0261
aF0.0024
aF0.0625
aF0.0023
aF0.5
aF0.3255
aF0.5
aF0.298
aF0.1111
aF0.1879
aF0.125
aF0.1714
aF0.2222
aF0.2522
aF0.125
aF0.1102
aF0.0
aF0.0
aF0.0
aF0.0
aF0.0
aF0.0
aF0.0
aF0.0
aF0.1667
aF0.2344
aF0.25
aF0.4204
aF0.0086
aF0.0043
aF0.0002
aF0.0002
aF0.5833
aF0.5297
aF0.3333
aF0.4653
aF0.0
aF0.0
aF0.0
aF0.0
aF0.0833
aF0.005
aF0.0
aF0.0
aF0.3333
aF0.4792
aF0.0
aF0.0
aF0.1667
aF0.0052
aF0.0
aF0.0
aF0.0
aF0.0
aF0.0
aF0.0
aF0.5
aF0.5156
aF0.0
aF0.0
aF0.0
aF0.0
asS'com.CrazyEvilTattoo.JoyceBurklin'
p237
(lp238
F0.9393
aF0.0
aF0.0
aF0.0
aF0.0
aF0.0
aF0.0551
aF0.0
aF0.0056
aF0.0238
aF0.0
aF0.9762
aF0.0179
aF0.0
aF0.9821
aF0.0057
aF0.0
aF0.9943
aF0.0057
aF0.0
aF0.9943
aF0.5
aF0.0
aF0.5
aF0.0
aF0.7
aF0.0
aF0.3
aF0.0
aF0.0
aF0.0
aF0.0
aF0.0
aF0.0
aF0.0
aF0.0
aF0.1187
aF0.0801
aF0.23
aF0.0537
aF0.25
aF0.7778
aF0.0613
aF0.5505
aF0.0
aF0.0
aF0.0
aF0.0
aF0.0
aF0.0
aF0.0
aF0.0
aF0.0
aF0.0
aF0.0
aF0.0
aF0.975
aF0.9938
aF1.0
aF1.0
aF0.025
aF0.0062
aF0.0
aF0.0
aF0.9259
aF0.9211
aF0.9524
aF0.9524
aF0.0
aF0.0
aF0.0
aF0.0
aF0.0741
aF0.0789
aF0.0476
aF0.0476
aF0.0
aF0.0
aF0.0
aF0.0
aF0.0
aF0.0
aF0.0
aF0.0
aF0.0
aF0.0
aF0.0
aF0.0
aF0.0059
aF0.003
aF0.0014
aF0.0014
aF1.0
aF1.0
aF0.0
aF0.0
aF0.0
aF0.0
aF0.0
aF0.0
aF0.0
aF0.0
aF0.0
aF0.0
aF1.0
aF1.0
aF0.0
aF0.0
aF0.0
aF0.0
aF0.0
aF0.0
aF0.0
aF0.0
aF0.0
aF0.0
aF0.0
aF0.0
aF0.0
aF0.0
aF0.0
aF0.0
asS'com.WoodenAndIronEntranceGate.JohnKazmierczak'
p239
(lp240
F0.9393
aF0.0
aF0.0
aF0.0
aF0.0
aF0.0
aF0.0551
aF0.0
aF0.0056
aF0.0238
aF0.0
aF0.9762
aF0.0179
aF0.0
aF0.9821
aF0.0057
aF0.0
aF0.9943
aF0.0057
aF0.0
aF0.9943
aF0.5
aF0.0
aF0.5
aF0.0
aF0.7
aF0.0
aF0.3
aF0.0
aF0.0
aF0.0
aF0.0
aF0.0
aF0.0
aF0.0
aF0.0
aF0.1187
aF0.0801
aF0.2299
aF0.0537
aF0.25
aF0.7778
aF0.0613
aF0.5502
aF0.0
aF0.0
aF0.0
aF0.0
aF0.0
aF0.0
aF0.0
aF0.0
aF0.0
aF0.0
aF0.0
aF0.0
aF0.975
aF0.9938
aF1.0
aF1.0
aF0.025
aF0.0062
aF0.0
aF0.0
aF0.9259
aF0.9211
aF0.9524
aF0.9524
aF0.0
aF0.0
aF0.0
aF0.0
aF0.0741
aF0.0789
aF0.0476
aF0.0476
aF0.0
aF0.0
aF0.0
aF0.0
aF0.0
aF0.0
aF0.0
aF0.0
aF0.0
aF0.0
aF0.0
aF0.0
aF0.0059
aF0.003
aF0.0014
aF0.0014
aF1.0
aF1.0
aF0.0
aF0.0
aF0.0
aF0.0
aF0.0
aF0.0
aF0.0
aF0.0
aF0.0
aF0.0
aF1.0
aF1.0
aF0.0
aF0.0
aF0.0
aF0.0
aF0.0
aF0.0
aF0.0
aF0.0
aF0.0
aF0.0
aF0.0
aF0.0
aF0.0
aF0.0
aF0.0
aF0.0
asS'com.SoccerAndSportThemedBedroom.JohnKazmierczak'
p241
(lp242
F0.9393
aF0.0
aF0.0
aF0.0
aF0.0
aF0.0
aF0.0551
aF0.0
aF0.0056
aF0.0238
aF0.0
aF0.9762
aF0.0179
aF0.0
aF0.9821
aF0.0057
aF0.0
aF0.9943
aF0.0057
aF0.0
aF0.9943
aF0.5
aF0.0
aF0.5
aF0.0
aF0.7
aF0.0
aF0.3
aF0.0
aF0.0
aF0.0
aF0.0
aF0.0
aF0.0
aF0.0
aF0.0
aF0.1187
aF0.0801
aF0.2299
aF0.0538
aF0.25
aF0.7778
aF0.0612
aF0.5497
aF0.0
aF0.0
aF0.0
aF0.0
aF0.0
aF0.0
aF0.0
aF0.0
aF0.0
aF0.0
aF0.0
aF0.0
aF0.975
aF0.9938
aF1.0
aF1.0
aF0.025
aF0.0062
aF0.0
aF0.0
aF0.9259
aF0.9211
aF0.9524
aF0.9524
aF0.0
aF0.0
aF0.0
aF0.0
aF0.0741
aF0.0789
aF0.0476
aF0.0476
aF0.0
aF0.0
aF0.0
aF0.0
aF0.0
aF0.0
aF0.0
aF0.0
aF0.0
aF0.0
aF0.0
aF0.0
aF0.0059
aF0.003
aF0.0014
aF0.0014
aF1.0
aF1.0
aF0.0
aF0.0
aF0.0
aF0.0
aF0.0
aF0.0
aF0.0
aF0.0
aF0.0
aF0.0
aF1.0
aF1.0
aF0.0
aF0.0
aF0.0
aF0.0
aF0.0
aF0.0
aF0.0
aF0.0
aF0.0
aF0.0
aF0.0
aF0.0
aF0.0
aF0.0
aF0.0
aF0.0
asS'com.UniqueFlowerCraftIdea.JohnKazmierczak'
p243
(lp244
F0.9393
aF0.0
aF0.0
aF0.0
aF0.0
aF0.0
aF0.0551
aF0.0
aF0.0056
aF0.0238
aF0.0
aF0.9762
aF0.0179
aF0.0
aF0.9821
aF0.0057
aF0.0
aF0.9943
aF0.0057
aF0.0
aF0.9943
aF0.5
aF0.0
aF0.5
aF0.0
aF0.7004
aF0.0
aF0.2996
aF0.0
aF0.0
aF0.0
aF0.0
aF0.0
aF0.0
aF0.0
aF0.0
aF0.1187
aF0.0801
aF0.2298
aF0.0538
aF0.25
aF0.7778
aF0.0612
aF0.5497
aF0.0
aF0.0
aF0.0
aF0.0
aF0.0
aF0.0
aF0.0
aF0.0
aF0.0
aF0.0
aF0.0
aF0.0
aF0.975
aF0.9938
aF1.0
aF1.0
aF0.025
aF0.0062
aF0.0
aF0.0
aF0.9259
aF0.9211
aF0.9524
aF0.9524
aF0.0
aF0.0
aF0.0
aF0.0
aF0.0741
aF0.0789
aF0.0476
aF0.0476
aF0.0
aF0.0
aF0.0
aF0.0
aF0.0
aF0.0
aF0.0
aF0.0
aF0.0
aF0.0
aF0.0
aF0.0
aF0.0059
aF0.003
aF0.0014
aF0.0014
aF1.0
aF1.0
aF0.0
aF0.0
aF0.0
aF0.0
aF0.0
aF0.0
aF0.0
aF0.0
aF0.0
aF0.0
aF1.0
aF1.0
aF0.0
aF0.0
aF0.0
aF0.0
aF0.0
aF0.0
aF0.0
aF0.0
aF0.0
aF0.0
aF0.0
aF0.0
aF0.0
aF0.0
aF0.0
aF0.0
asS'com.arroyaapps.entrancewaydecoratingideas'
p245
(lp246
F0.9394
aF0.0
aF0.0
aF0.0
aF0.0
aF0.0
aF0.0549
aF0.0
aF0.0056
aF0.0238
aF0.0
aF0.9762
aF0.0179
aF0.0
aF0.9821
aF0.0057
aF0.0
aF0.9943
aF0.0057
aF0.0
aF0.9943
aF0.5
aF0.0
aF0.5
aF0.0
aF0.6998
aF0.0
aF0.3002
aF0.0
aF0.0
aF0.0
aF0.0
aF0.0
aF0.0
aF0.0
aF0.0
aF0.1187
aF0.0801
aF0.23
aF0.0537
aF0.25
aF0.7778
aF0.0613
aF0.5503
aF0.0
aF0.0
aF0.0
aF0.0
aF0.0
aF0.0
aF0.0
aF0.0
aF0.0
aF0.0
aF0.0
aF0.0
aF0.975
aF0.9938
aF1.0
aF1.0
aF0.025
aF0.0062
aF0.0
aF0.0
aF0.9259
aF0.921
aF0.9524
aF0.9523
aF0.0
aF0.0
aF0.0
aF0.0
aF0.0741
aF0.079
aF0.0476
aF0.0477
aF0.0
aF0.0
aF0.0
aF0.0
aF0.0
aF0.0
aF0.0
aF0.0
aF0.0
aF0.0
aF0.0
aF0.0
aF0.0059
aF0.003
aF0.0014
aF0.0014
aF1.0
aF1.0
aF0.0
aF0.0
aF0.0
aF0.0
aF0.0
aF0.0
aF0.0
aF0.0
aF0.0
aF0.0
aF1.0
aF1.0
aF0.0
aF0.0
aF0.0
aF0.0
aF0.0
aF0.0
aF0.0
aF0.0
aF0.0
aF0.0
aF0.0
aF0.0
aF0.0
aF0.0
aF0.0
aF0.0
asS'com.arroyaapps.bathroominteriordesigns'
p247
(lp248
F0.9393
aF0.0
aF0.0
aF0.0
aF0.0
aF0.0
aF0.0551
aF0.0
aF0.0056
aF0.0238
aF0.0
aF0.9762
aF0.0179
aF0.0
aF0.9821
aF0.0057
aF0.0
aF0.9943
aF0.0057
aF0.0
aF0.9943
aF0.5
aF0.0
aF0.5
aF0.0
aF0.7
aF0.0
aF0.3
aF0.0
aF0.0
aF0.0
aF0.0
aF0.0
aF0.0
aF0.0
aF0.0
aF0.1187
aF0.0801
aF0.2299
aF0.0537
aF0.25
aF0.7778
aF0.0613
aF0.5501
aF0.0
aF0.0
aF0.0
aF0.0
aF0.0
aF0.0
aF0.0
aF0.0
aF0.0
aF0.0
aF0.0
aF0.0
aF0.975
aF0.9938
aF1.0
aF1.0
aF0.025
aF0.0062
aF0.0
aF0.0
aF0.9259
aF0.9211
aF0.9524
aF0.9524
aF0.0
aF0.0
aF0.0
aF0.0
aF0.0741
aF0.0789
aF0.0476
aF0.0476
aF0.0
aF0.0
aF0.0
aF0.0
aF0.0
aF0.0
aF0.0
aF0.0
aF0.0
aF0.0
aF0.0
aF0.0
aF0.0059
aF0.003
aF0.0014
aF0.0014
aF1.0
aF1.0
aF0.0
aF0.0
aF0.0
aF0.0
aF0.0
aF0.0
aF0.0
aF0.0
aF0.0
aF0.0
aF1.0
aF1.0
aF0.0
aF0.0
aF0.0
aF0.0
aF0.0
aF0.0
aF0.0
aF0.0
aF0.0
aF0.0
aF0.0
aF0.0
aF0.0
aF0.0
aF0.0
aF0.0
asS'com.arroyaapps.hallwaylightingideas'
p249
(lp250
F0.9384
aF0.0
aF0.0
aF0.0
aF0.0
aF0.0
aF0.0559
aF0.0
aF0.0057
aF0.0238
aF0.0
aF0.9762
aF0.0179
aF0.0
aF0.9821
aF0.0058
aF0.0
aF0.9942
aF0.0058
aF0.0
aF0.9942
aF0.5
aF0.0
aF0.5
aF0.0
aF0.7
aF0.0
aF0.3
aF0.0
aF0.0
aF0.0
aF0.0
aF0.0
aF0.0
aF0.0
aF0.0
aF0.119
aF0.0804
aF0.2318
aF0.0545
aF0.25
aF0.7778
aF0.0616
aF0.5503
aF0.0
aF0.0
aF0.0
aF0.0
aF0.0
aF0.0
aF0.0
aF0.0
aF0.0
aF0.0
aF0.0
aF0.0
aF0.975
aF0.9938
aF1.0
aF1.0
aF0.025
aF0.0062
aF0.0
aF0.0
aF0.9259
aF0.9211
aF0.9524
aF0.9524
aF0.0
aF0.0
aF0.0
aF0.0
aF0.0741
aF0.0789
aF0.0476
aF0.0476
aF0.0
aF0.0
aF0.0
aF0.0
aF0.0
aF0.0
aF0.0
aF0.0
aF0.0
aF0.0
aF0.0
aF0.0
aF0.006
aF0.003
aF0.0014
aF0.0014
aF1.0
aF1.0
aF0.0
aF0.0
aF0.0
aF0.0
aF0.0
aF0.0
aF0.0
aF0.0
aF0.0
aF0.0
aF1.0
aF1.0
aF0.0
aF0.0
aF0.0
aF0.0
aF0.0
aF0.0
aF0.0
aF0.0
aF0.0
aF0.0
aF0.0
aF0.0
aF0.0
aF0.0
aF0.0
aF0.0
asS'com.mozgame.cookie.family'
p251
(lp252
F0.0
aF0.0
aF0.0
aF0.7164666666666667
aF0.28353333333333336
aF0.0
aF0.0
aF0.0
aF0.0
aF0.0
aF0.375
aF0.625
aF0.0
aF0.502
aF0.498
aF0.0
aF0.28436666666666666
aF0.7156333333333333
aF0.0
aF0.28656666666666664
aF0.7134333333333333
aF0.0
aF0.0
aF0.0
aF0.0
aF0.0
aF0.0
aF0.0
aF0.0
aF0.0
aF0.0
aF0.0
aF0.0
aF0.0
aF0.0
aF0.0
aF0.12
aF0.0
aF0.13383333333333333
aF0.0
aF0.0
aF0.0
aF0.0
aF0.0
aF0.0
aF0.0
aF0.0
aF0.0
aF0.0
aF0.0
aF0.0
aF0.0
aF0.0
aF0.0
aF0.0
aF0.0
aF1.0
aF1.0
aF0.0
aF0.0
aF0.0
aF0.0
aF0.0
aF0.0
aF0.0
aF0.0
aF0.0
aF0.0
aF0.0
aF0.0
aF0.0
aF0.0
aF0.0
aF0.0
aF0.0
aF0.0
aF0.0
aF0.0
aF0.0
aF0.0
aF0.0
aF0.0
aF0.0
aF0.0
aF0.0
aF0.0
aF0.0
aF0.0
aF0.024000000000000004
aF0.011966666666666667
aF0.0078000000000000005
aF0.0077333333333333325
aF0.0
aF0.0
aF1.0
aF1.0
aF0.0
aF0.0
aF0.0
aF0.0
aF0.0
aF0.0
aF0.0
aF0.0
aF0.0
aF0.0
aF0.0
aF0.0
aF0.0
aF0.0
aF0.0
aF0.0
aF1.0
aF1.0
aF0.0
aF0.0
aF0.0
aF0.0
aF0.0
aF0.0
aF0.0
aF0.0
asS'com.DIYPerfectMakeUp.Nephilim'
p253
(lp254
F0.9494
aF0.0
aF0.0
aF0.0
aF0.0
aF0.0
aF0.0459
aF0.0
aF0.0047
aF0.0185
aF0.0
aF0.9815
aF0.0166
aF0.0
aF0.9834
aF0.0047
aF0.0
aF0.9953
aF0.0048
aF0.0
aF0.9952
aF1.0
aF0.0
aF0.0
aF0.0
aF1.0
aF0.0
aF0.0
aF0.0
aF0.0
aF0.0
aF0.0
aF0.0
aF0.0
aF0.0
aF0.0
aF0.0967
aF0.0387
aF0.0838
aF0.0194
aF0.3429
aF0.9286
aF0.1124
aF0.7261
aF0.0
aF0.0
aF0.0
aF0.0
aF0.0
aF0.0
aF0.0
aF0.0
aF0.0
aF0.0
aF0.0
aF0.0
aF1.0
aF1.0
aF1.0
aF1.0
aF0.0
aF0.0
aF0.0
aF0.0
aF0.9286
aF0.939
aF0.9231
aF0.9167
aF0.0
aF0.0
aF0.0
aF0.0
aF0.0714
aF0.061
aF0.0769
aF0.0833
aF0.0
aF0.0
aF0.0
aF0.0
aF0.0
aF0.0
aF0.0
aF0.0
aF0.0
aF0.0
aF0.0
aF0.0
aF0.0055
aF0.0028
aF0.0012
aF0.0012
aF1.0
aF1.0
aF0.0
aF0.0
aF0.0
aF0.0
aF0.0
aF0.0
aF0.0
aF0.0
aF0.0
aF0.0
aF1.0
aF1.0
aF0.0
aF0.0
aF0.0
aF0.0
aF0.0
aF0.0
aF0.0
aF0.0
aF0.0
aF0.0
aF0.0
aF0.0
aF0.0
aF0.0
aF0.0
aF0.0
asS'shakira.abadi.shahibukhori'
p255
(lp256
F0.9451
aF0.0
aF0.0
aF0.0
aF0.0
aF0.0
aF0.0498
aF0.0
aF0.0051
aF0.0172
aF0.0
aF0.9828
aF0.0129
aF0.0
aF0.9871
aF0.0051
aF0.0
aF0.9949
aF0.0052
aF0.0
aF0.9948
aF0.5
aF0.0
aF0.5
aF0.0
aF0.7
aF0.0
aF0.3
aF0.0
aF0.0
aF0.0
aF0.0
aF0.0
aF0.0
aF0.0
aF0.0
aF0.0985
aF0.0364
aF0.1201
aF0.0252
aF0.1522
aF0.7647
aF0.1061
aF0.7075
aF0.0
aF0.0
aF0.0
aF0.0
aF0.0
aF0.0
aF0.0
aF0.0
aF0.0
aF0.0
aF0.0
aF0.0
aF0.9783
aF0.9934
aF1.0
aF1.0
aF0.0217
aF0.0066
aF0.0
aF0.0
aF0.8824
aF0.805
aF0.9231
aF0.8571
aF0.0
aF0.0
aF0.0
aF0.0
aF0.1176
aF0.195
aF0.0769
aF0.1429
aF0.0
aF0.0
aF0.0
aF0.0
aF0.0
aF0.0
aF0.0
aF0.0
aF0.0
aF0.0
aF0.0
aF0.0
aF0.0043
aF0.0021
aF0.0013
aF0.0013
aF1.0
aF1.0
aF0.0
aF0.0
aF0.0
aF0.0
aF0.0
aF0.0
aF0.0
aF0.0
aF0.0
aF0.0
aF1.0
aF1.0
aF0.0
aF0.0
aF0.0
aF0.0
aF0.0
aF0.0
aF0.0
aF0.0
aF0.0
aF0.0
aF0.0
aF0.0
aF0.0
aF0.0
aF0.0
aF0.0
asS'com.AwesomeShirtDesign.Nephilim'
p257
(lp258
F0.9494
aF0.0
aF0.0
aF0.0
aF0.0
aF0.0
aF0.0459
aF0.0
aF0.0047
aF0.0201
aF0.0
aF0.9799
aF0.019
aF0.0
aF0.981
aF0.0047
aF0.0
aF0.9953
aF0.0047
aF0.0
aF0.9953
aF1.0
aF0.0
aF0.0
aF0.0
aF1.0
aF0.0
aF0.0
aF0.0
aF0.0
aF0.0
aF0.0
aF0.0
aF0.0
aF0.0
aF0.0
aF0.1073
aF0.0442
aF0.0809
aF0.0196
aF0.3529
aF0.9286
aF0.1165
aF0.7175
aF0.0
aF0.0
aF0.0
aF0.0
aF0.0
aF0.0
aF0.0
aF0.0
aF0.0
aF0.0
aF0.0
aF0.0
aF1.0
aF1.0
aF1.0
aF1.0
aF0.0
aF0.0
aF0.0
aF0.0
aF0.9286
aF0.9398
aF0.9231
aF0.9167
aF0.0
aF0.0
aF0.0
aF0.0
aF0.0714
aF0.0602
aF0.0769
aF0.0833
aF0.0
aF0.0
aF0.0
aF0.0
aF0.0
aF0.0
aF0.0
aF0.0
aF0.0
aF0.0
aF0.0
aF0.0
aF0.0063
aF0.0032
aF0.0012
aF0.0012
aF1.0
aF1.0
aF0.0
aF0.0
aF0.0
aF0.0
aF0.0
aF0.0
aF0.0
aF0.0
aF0.0
aF0.0
aF1.0
aF1.0
aF0.0
aF0.0
aF0.0
aF0.0
aF0.0
aF0.0
aF0.0
aF0.0
aF0.0
aF0.0
aF0.0
aF0.0
aF0.0
aF0.0
aF0.0
aF0.0
asS'com.arroyaapps.homecabinetdesign'
p259
(lp260
F0.9384
aF0.0
aF0.0
aF0.0
aF0.0
aF0.0
aF0.0559
aF0.0
aF0.0057
aF0.0238
aF0.0
aF0.9762
aF0.0179
aF0.0
aF0.9821
aF0.0058
aF0.0
aF0.9942
aF0.0058
aF0.0
aF0.9942
aF0.5
aF0.0
aF0.5
aF0.0
aF0.7
aF0.0
aF0.3
aF0.0
aF0.0
aF0.0
aF0.0
aF0.0
aF0.0
aF0.0
aF0.0
aF0.119
aF0.0804
aF0.2318
aF0.0545
aF0.25
aF0.7778
aF0.0616
aF0.55
aF0.0
aF0.0
aF0.0
aF0.0
aF0.0
aF0.0
aF0.0
aF0.0
aF0.0
aF0.0
aF0.0
aF0.0
aF0.975
aF0.9938
aF1.0
aF1.0
aF0.025
aF0.0062
aF0.0
aF0.0
aF0.9259
aF0.9211
aF0.9524
aF0.9524
aF0.0
aF0.0
aF0.0
aF0.0
aF0.0741
aF0.0789
aF0.0476
aF0.0476
aF0.0
aF0.0
aF0.0
aF0.0
aF0.0
aF0.0
aF0.0
aF0.0
aF0.0
aF0.0
aF0.0
aF0.0
aF0.006
aF0.003
aF0.0014
aF0.0014
aF1.0
aF1.0
aF0.0
aF0.0
aF0.0
aF0.0
aF0.0
aF0.0
aF0.0
aF0.0
aF0.0
aF0.0
aF1.0
aF1.0
aF0.0
aF0.0
aF0.0
aF0.0
aF0.0
aF0.0
aF0.0
aF0.0
aF0.0
aF0.0
aF0.0
aF0.0
aF0.0
aF0.0
aF0.0
aF0.0
asS'com.arroyaapps.romanticcandlelightdinner'
p261
(lp262
F0.9393
aF0.0
aF0.0
aF0.0
aF0.0
aF0.0
aF0.0551
aF0.0
aF0.0056
aF0.0238
aF0.0
aF0.9762
aF0.0179
aF0.0
aF0.9821
aF0.0057
aF0.0
aF0.9943
aF0.0057
aF0.0
aF0.9943
aF0.5
aF0.0
aF0.5
aF0.0
aF0.7
aF0.0
aF0.3
aF0.0
aF0.0
aF0.0
aF0.0
aF0.0
aF0.0
aF0.0
aF0.0
aF0.1187
aF0.0801
aF0.2299
aF0.0537
aF0.25
aF0.7778
aF0.0613
aF0.5501
aF0.0
aF0.0
aF0.0
aF0.0
aF0.0
aF0.0
aF0.0
aF0.0
aF0.0
aF0.0
aF0.0
aF0.0
aF0.975
aF0.9938
aF1.0
aF1.0
aF0.025
aF0.0062
aF0.0
aF0.0
aF0.9259
aF0.9211
aF0.9524
aF0.9524
aF0.0
aF0.0
aF0.0
aF0.0
aF0.0741
aF0.0789
aF0.0476
aF0.0476
aF0.0
aF0.0
aF0.0
aF0.0
aF0.0
aF0.0
aF0.0
aF0.0
aF0.0
aF0.0
aF0.0
aF0.0
aF0.0059
aF0.003
aF0.0014
aF0.0014
aF1.0
aF1.0
aF0.0
aF0.0
aF0.0
aF0.0
aF0.0
aF0.0
aF0.0
aF0.0
aF0.0
aF0.0
aF1.0
aF1.0
aF0.0
aF0.0
aF0.0
aF0.0
aF0.0
aF0.0
aF0.0
aF0.0
aF0.0
aF0.0
aF0.0
aF0.0
aF0.0
aF0.0
aF0.0
aF0.0
asS'com.GarageOrganizerIdeas.JohnFehsenfeldjo'
p263
(lp264
F0.9393
aF0.0
aF0.0
aF0.0
aF0.0
aF0.0
aF0.0551
aF0.0
aF0.0056
aF0.0238
aF0.0
aF0.9762
aF0.0179
aF0.0
aF0.9821
aF0.0057
aF0.0
aF0.9943
aF0.0057
aF0.0
aF0.9943
aF0.5
aF0.0
aF0.5
aF0.0
aF0.7
aF0.0
aF0.3
aF0.0
aF0.0
aF0.0
aF0.0
aF0.0
aF0.0
aF0.0
aF0.0
aF0.1187
aF0.0801
aF0.2299
aF0.0538
aF0.25
aF0.7778
aF0.0613
aF0.55
aF0.0
aF0.0
aF0.0
aF0.0
aF0.0
aF0.0
aF0.0
aF0.0
aF0.0
aF0.0
aF0.0
aF0.0
aF0.975
aF0.9938
aF1.0
aF1.0
aF0.025
aF0.0062
aF0.0
aF0.0
aF0.9259
aF0.9211
aF0.9524
aF0.9524
aF0.0
aF0.0
aF0.0
aF0.0
aF0.0741
aF0.0789
aF0.0476
aF0.0476
aF0.0
aF0.0
aF0.0
aF0.0
aF0.0
aF0.0
aF0.0
aF0.0
aF0.0
aF0.0
aF0.0
aF0.0
aF0.0059
aF0.003
aF0.0014
aF0.0014
aF1.0
aF1.0
aF0.0
aF0.0
aF0.0
aF0.0
aF0.0
aF0.0
aF0.0
aF0.0
aF0.0
aF0.0
aF1.0
aF1.0
aF0.0
aF0.0
aF0.0
aF0.0
aF0.0
aF0.0
aF0.0
aF0.0
aF0.0
aF0.0
aF0.0
aF0.0
aF0.0
aF0.0
aF0.0
aF0.0
asS'com.aaronbalderapps.fishponddesignideas'
p265
(lp266
F0.9393
aF0.0
aF0.0
aF0.0
aF0.0
aF0.0
aF0.0551
aF0.0
aF0.0056
aF0.0238
aF0.0
aF0.9762
aF0.0179
aF0.0
aF0.9821
aF0.0057
aF0.0
aF0.9943
aF0.0057
aF0.0
aF0.9943
aF0.5
aF0.0
aF0.5
aF0.0
aF0.7
aF0.0
aF0.3
aF0.0
aF0.0
aF0.0
aF0.0
aF0.0
aF0.0
aF0.0
aF0.0
aF0.1187
aF0.0801
aF0.2299
aF0.0538
aF0.25
aF0.7778
aF0.0613
aF0.55
aF0.0
aF0.0
aF0.0
aF0.0
aF0.0
aF0.0
aF0.0
aF0.0
aF0.0
aF0.0
aF0.0
aF0.0
aF0.975
aF0.9938
aF1.0
aF1.0
aF0.025
aF0.0062
aF0.0
aF0.0
aF0.9259
aF0.9211
aF0.9524
aF0.9524
aF0.0
aF0.0
aF0.0
aF0.0
aF0.0741
aF0.0789
aF0.0476
aF0.0476
aF0.0
aF0.0
aF0.0
aF0.0
aF0.0
aF0.0
aF0.0
aF0.0
aF0.0
aF0.0
aF0.0
aF0.0
aF0.0059
aF0.003
aF0.0014
aF0.0014
aF1.0
aF1.0
aF0.0
aF0.0
aF0.0
aF0.0
aF0.0
aF0.0
aF0.0
aF0.0
aF0.0
aF0.0
aF1.0
aF1.0
aF0.0
aF0.0
aF0.0
aF0.0
aF0.0
aF0.0
aF0.0
aF0.0
aF0.0
aF0.0
aF0.0
aF0.0
aF0.0
aF0.0
aF0.0
aF0.0
asS'rksystem.punediary'
p267
(lp268
F0.9412
aF0.039
aF0.0
aF0.0039
aF0.0019
aF0.0
aF0.013
aF0.0
aF0.001
aF0.0115
aF0.0153
aF0.9732
aF0.0081
aF0.0121
aF0.9798
aF0.001
aF0.0409
aF0.9582
aF0.001
aF0.0409
aF0.9581
aF0.8
aF0.0
aF0.2
aF0.0
aF0.9897
aF0.0
aF0.0103
aF0.0
aF0.0
aF0.0
aF0.0
aF1.0
aF0.0
aF0.0
aF0.0
aF0.0991
aF0.0161
aF0.1712
aF0.0077
aF0.1757
aF0.5
aF0.0357
aF0.3766
aF0.0
aF0.0
aF0.0
aF0.0
aF0.0
aF0.0
aF0.0
aF0.0
aF0.0
aF0.0
aF0.0
aF0.0
aF0.9865
aF0.9972
aF1.0
aF1.0
aF0.0135
aF0.0028
aF0.0
aF0.0
aF0.8333
aF0.81
aF0.8333
aF0.8299
aF0.0
aF0.0
aF0.0
aF0.0
aF0.1667
aF0.19
aF0.1667
aF0.1701
aF0.0
aF0.0
aF0.0
aF0.0
aF0.0
aF0.0
aF0.0
aF0.0
aF0.0
aF0.0
aF0.0
aF0.0
aF0.0054
aF0.0107
aF0.0015
aF0.015
aF1.0
aF1.0
aF0.0
aF0.0
aF0.0
aF0.0
aF0.0
aF0.0
aF0.0
aF0.0
aF0.0
aF0.0
aF0.0
aF0.0
aF0.0
aF0.0
aF0.0
aF0.0
aF0.0
aF0.0
aF0.0
aF0.0
aF0.0
aF0.0
aF0.75
aF0.9356
aF0.0
aF0.0
aF0.25
aF0.0644
asS'com.aaronbalderapps.teenageroomdesigns'
p269
(lp270
F0.9384
aF0.0
aF0.0
aF0.0
aF0.0
aF0.0
aF0.0559
aF0.0
aF0.0057
aF0.0238
aF0.0
aF0.9762
aF0.0179
aF0.0
aF0.9821
aF0.0058
aF0.0
aF0.9942
aF0.0058
aF0.0
aF0.9942
aF0.5
aF0.0
aF0.5
aF0.0
aF0.7
aF0.0
aF0.3
aF0.0
aF0.0
aF0.0
aF0.0
aF0.0
aF0.0
aF0.0
aF0.0
aF0.119
aF0.0804
aF0.2317
aF0.0545
aF0.25
aF0.7778
aF0.0616
aF0.5497
aF0.0
aF0.0
aF0.0
aF0.0
aF0.0
aF0.0
aF0.0
aF0.0
aF0.0
aF0.0
aF0.0
aF0.0
aF0.975
aF0.9938
aF1.0
aF1.0
aF0.025
aF0.0062
aF0.0
aF0.0
aF0.9259
aF0.9211
aF0.9524
aF0.9524
aF0.0
aF0.0
aF0.0
aF0.0
aF0.0741
aF0.0789
aF0.0476
aF0.0476
aF0.0
aF0.0
aF0.0
aF0.0
aF0.0
aF0.0
aF0.0
aF0.0
aF0.0
aF0.0
aF0.0
aF0.0
aF0.006
aF0.003
aF0.0014
aF0.0014
aF1.0
aF1.0
aF0.0
aF0.0
aF0.0
aF0.0
aF0.0
aF0.0
aF0.0
aF0.0
aF0.0
aF0.0
aF1.0
aF1.0
aF0.0
aF0.0
aF0.0
aF0.0
aF0.0
aF0.0
aF0.0
aF0.0
aF0.0
aF0.0
aF0.0
aF0.0
aF0.0
aF0.0
aF0.0
aF0.0
asS'com.SimpleRoomDesign.Nephilim'
p271
(lp272
F0.9496
aF0.0
aF0.0
aF0.0
aF0.0
aF0.0
aF0.0457
aF0.0
aF0.0047
aF0.0185
aF0.0
aF0.9815
aF0.0166
aF0.0
aF0.9834
aF0.0047
aF0.0
aF0.9953
aF0.0047
aF0.0
aF0.9953
aF1.0
aF0.0
aF0.0
aF0.0
aF1.0
aF0.0
aF0.0
aF0.0
aF0.0
aF0.0
aF0.0
aF0.0
aF0.0
aF0.0
aF0.0
aF0.0967
aF0.0387
aF0.0817
aF0.0196
aF0.3429
aF0.9286
aF0.1147
aF0.7146
aF0.0
aF0.0
aF0.0
aF0.0
aF0.0
aF0.0
aF0.0
aF0.0
aF0.0
aF0.0
aF0.0
aF0.0
aF1.0
aF1.0
aF1.0
aF1.0
aF0.0
aF0.0
aF0.0
aF0.0
aF0.9286
aF0.9401
aF0.9231
aF0.9167
aF0.0
aF0.0
aF0.0
aF0.0
aF0.0714
aF0.0599
aF0.0769
aF0.0833
aF0.0
aF0.0
aF0.0
aF0.0
aF0.0
aF0.0
aF0.0
aF0.0
aF0.0
aF0.0
aF0.0
aF0.0
aF0.0055
aF0.0028
aF0.0012
aF0.0012
aF1.0
aF1.0
aF0.0
aF0.0
aF0.0
aF0.0
aF0.0
aF0.0
aF0.0
aF0.0
aF0.0
aF0.0
aF1.0
aF1.0
aF0.0
aF0.0
aF0.0
aF0.0
aF0.0
aF0.0
aF0.0
aF0.0
aF0.0
aF0.0
aF0.0
aF0.0
aF0.0
aF0.0
aF0.0
aF0.0
asS'air.com.syntela.android.webconnect'
p273
(lp274
F0.1263
aF0.0
aF0.0
aF0.0
aF0.0
aF0.0
aF0.6842
aF0.0
aF0.1895
aF0.0625
aF0.0
aF0.9375
aF0.2909
aF0.0
aF0.7091
aF0.1902
aF0.0
aF0.8098
aF0.2176
aF0.0
aF0.7824
aF0.6667
aF0.0
aF0.3333
aF0.0
aF0.9736
aF0.0
aF0.0264
aF0.0
aF0.0
aF0.0
aF0.0
aF0.0
aF0.0
aF0.0
aF0.0
aF0.082
aF0.0164
aF0.2196
aF0.0106
aF0.4
aF1.0
aF0.0949
aF0.9844
aF0.0
aF0.0
aF0.0
aF0.0
aF0.0
aF0.0
aF0.0
aF0.0
aF0.0
aF0.0
aF0.0
aF0.0
aF1.0
aF1.0
aF1.0
aF1.0
aF0.0
aF0.0
aF0.0
aF0.0
aF0.0
aF0.0
aF0.0
aF0.0
aF0.0
aF0.0
aF0.0
aF0.0
aF1.0
aF1.0
aF1.0
aF1.0
aF0.0
aF0.0
aF0.0
aF0.0
aF0.0
aF0.0
aF0.0
aF0.0
aF0.0
aF0.0
aF0.0
aF0.0
aF0.1639
aF0.1803
aF0.0538
aF0.1894
aF1.0
aF1.0
aF0.0
aF0.0
aF0.0
aF0.0
aF0.0
aF0.0
aF0.0
aF0.0
aF0.0
aF0.0
aF0.0
aF0.0
aF0.0
aF0.0
aF0.0
aF0.0
aF0.0
aF0.0
aF1.0
aF1.0
aF0.0
aF0.0
aF0.0
aF0.0
aF0.0
aF0.0
aF0.0
aF0.0
asS'activity.cs.skfgfdgfht'
p275
(lp276
F0.0
aF0.0005
aF0.0
aF0.8918
aF0.0987
aF0.0
aF0.0084
aF0.0005
aF0.0
aF0.0132
aF0.3816
aF0.6053
aF0.0083
aF0.4025
aF0.5892
aF0.0
aF0.1004
aF0.8996
aF0.0
aF0.1005
aF0.8994
aF0.5
aF0.0
aF0.5
aF0.0
aF0.8167
aF0.0
aF0.1833
aF0.0
aF0.0
aF0.0
aF0.0
aF0.0
aF0.0
aF0.0
aF0.0
aF0.1895
aF0.0323
aF0.1077
aF0.0081
aF0.2979
aF0.75
aF0.0731
aF0.263
aF0.0
aF0.0
aF0.0
aF0.0
aF0.0
aF0.0
aF0.0
aF0.0
aF0.0
aF0.0
aF0.0
aF0.0
aF0.9574
aF0.9852
aF1.0
aF1.0
aF0.0426
aF0.0148
aF0.0
aF0.0
aF0.625
aF0.4113
aF0.8333
aF0.9959
aF0.0
aF0.0
aF0.0
aF0.0
aF0.25
aF0.3918
aF0.0
aF0.0
aF0.0
aF0.0
aF0.0
aF0.0
aF0.0
aF0.0
aF0.0
aF0.0
aF0.125
aF0.197
aF0.1667
aF0.0041
aF0.0161
aF0.0081
aF0.0011
aF0.0011
aF0.5
aF0.5
aF0.5
aF0.5
aF0.0
aF0.0
aF0.0
aF0.0
aF0.0
aF0.0
aF0.0
aF0.0
aF0.5
aF0.5
aF0.0
aF0.0
aF0.0
aF0.0
aF0.0
aF0.0
aF0.0
aF0.0
aF0.0
aF0.0
aF0.5
aF0.5
aF0.0
aF0.0
aF0.0
aF0.0
asS'com.MinimalistBedroomDesign.JohnFehsenfeldjo'
p277
(lp278
F0.9394
aF0.0
aF0.0
aF0.0
aF0.0
aF0.0
aF0.0549
aF0.0
aF0.0056
aF0.0238
aF0.0
aF0.9762
aF0.0179
aF0.0
aF0.9821
aF0.0057
aF0.0
aF0.9943
aF0.0057
aF0.0
aF0.9943
aF0.5
aF0.0
aF0.5
aF0.0
aF0.6998
aF0.0
aF0.3002
aF0.0
aF0.0
aF0.0
aF0.0
aF0.0
aF0.0
aF0.0
aF0.0
aF0.1187
aF0.0801
aF0.2299
aF0.0537
aF0.25
aF0.7778
aF0.0612
aF0.5501
aF0.0
aF0.0
aF0.0
aF0.0
aF0.0
aF0.0
aF0.0
aF0.0
aF0.0
aF0.0
aF0.0
aF0.0
aF0.975
aF0.9938
aF1.0
aF1.0
aF0.025
aF0.0062
aF0.0
aF0.0
aF0.9259
aF0.921
aF0.9524
aF0.9523
aF0.0
aF0.0
aF0.0
aF0.0
aF0.0741
aF0.079
aF0.0476
aF0.0477
aF0.0
aF0.0
aF0.0
aF0.0
aF0.0
aF0.0
aF0.0
aF0.0
aF0.0
aF0.0
aF0.0
aF0.0
aF0.0059
aF0.003
aF0.0014
aF0.0014
aF1.0
aF1.0
aF0.0
aF0.0
aF0.0
aF0.0
aF0.0
aF0.0
aF0.0
aF0.0
aF0.0
aF0.0
aF1.0
aF1.0
aF0.0
aF0.0
aF0.0
aF0.0
aF0.0
aF0.0
aF0.0
aF0.0
aF0.0
aF0.0
aF0.0
aF0.0
aF0.0
aF0.0
aF0.0
aF0.0
asS'com.KimonostyleCardigan.SusanBeall'
p279
(lp280
F0.9393
aF0.0
aF0.0
aF0.0
aF0.0
aF0.0
aF0.0551
aF0.0
aF0.0056
aF0.0238
aF0.0
aF0.9762
aF0.0179
aF0.0
aF0.9821
aF0.0057
aF0.0
aF0.9943
aF0.0057
aF0.0
aF0.9943
aF0.5
aF0.0
aF0.5
aF0.0
aF0.7
aF0.0
aF0.3
aF0.0
aF0.0
aF0.0
aF0.0
aF0.0
aF0.0
aF0.0
aF0.0
aF0.1187
aF0.0801
aF0.2299
aF0.0537
aF0.25
aF0.7778
aF0.0613
aF0.5501
aF0.0
aF0.0
aF0.0
aF0.0
aF0.0
aF0.0
aF0.0
aF0.0
aF0.0
aF0.0
aF0.0
aF0.0
aF0.975
aF0.9938
aF1.0
aF1.0
aF0.025
aF0.0062
aF0.0
aF0.0
aF0.9259
aF0.9211
aF0.9524
aF0.9524
aF0.0
aF0.0
aF0.0
aF0.0
aF0.0741
aF0.0789
aF0.0476
aF0.0476
aF0.0
aF0.0
aF0.0
aF0.0
aF0.0
aF0.0
aF0.0
aF0.0
aF0.0
aF0.0
aF0.0
aF0.0
aF0.0059
aF0.003
aF0.0014
aF0.0014
aF1.0
aF1.0
aF0.0
aF0.0
aF0.0
aF0.0
aF0.0
aF0.0
aF0.0
aF0.0
aF0.0
aF0.0
aF1.0
aF1.0
aF0.0
aF0.0
aF0.0
aF0.0
aF0.0
aF0.0
aF0.0
aF0.0
aF0.0
aF0.0
aF0.0
aF0.0
aF0.0
aF0.0
aF0.0
aF0.0
asS'com.arroyaapps.crochetdoiliesideas'
p281
(lp282
F0.9393
aF0.0
aF0.0
aF0.0
aF0.0
aF0.0
aF0.0551
aF0.0
aF0.0056
aF0.0238
aF0.0
aF0.9762
aF0.0179
aF0.0
aF0.9821
aF0.0057
aF0.0
aF0.9943
aF0.0057
aF0.0
aF0.9943
aF0.5
aF0.0
aF0.5
aF0.0
aF0.7
aF0.0
aF0.3
aF0.0
aF0.0
aF0.0
aF0.0
aF0.0
aF0.0
aF0.0
aF0.0
aF0.1187
aF0.0801
aF0.2299
aF0.0537
aF0.25
aF0.7778
aF0.0613
aF0.5504
aF0.0
aF0.0
aF0.0
aF0.0
aF0.0
aF0.0
aF0.0
aF0.0
aF0.0
aF0.0
aF0.0
aF0.0
aF0.975
aF0.9938
aF1.0
aF1.0
aF0.025
aF0.0062
aF0.0
aF0.0
aF0.9259
aF0.9211
aF0.9524
aF0.9524
aF0.0
aF0.0
aF0.0
aF0.0
aF0.0741
aF0.0789
aF0.0476
aF0.0476
aF0.0
aF0.0
aF0.0
aF0.0
aF0.0
aF0.0
aF0.0
aF0.0
aF0.0
aF0.0
aF0.0
aF0.0
aF0.0059
aF0.003
aF0.0014
aF0.0014
aF1.0
aF1.0
aF0.0
aF0.0
aF0.0
aF0.0
aF0.0
aF0.0
aF0.0
aF0.0
aF0.0
aF0.0
aF1.0
aF1.0
aF0.0
aF0.0
aF0.0
aF0.0
aF0.0
aF0.0
aF0.0
aF0.0
aF0.0
aF0.0
aF0.0
aF0.0
aF0.0
aF0.0
aF0.0
aF0.0
asS'com.mjkand.cerpenpersahabatanremaja'
p283
(lp284
F0.9309
aF0.0022
aF0.0
aF0.0504
aF0.0165
aF0.0
aF0.0
aF0.0
aF0.0
aF0.0
aF0.1695
aF0.8305
aF0.0
aF0.1468
aF0.8532
aF0.0
aF0.0195
aF0.9805
aF0.0
aF0.0195
aF0.9805
aF0.6
aF0.0
aF0.1333
aF0.2667
aF0.9986
aF0.0
aF0.0005
aF0.0009
aF0.9539
aF0.0
aF0.0132
aF0.0329
aF0.0
aF0.0
aF0.0
aF0.0793
aF0.0227
aF0.3147
aF0.0153
aF0.2406
aF0.5789
aF0.02
aF0.2173
aF0.0
aF0.0
aF0.0
aF0.0
aF0.0
aF0.0
aF0.0
aF0.0
aF0.0
aF0.0
aF0.0
aF0.0
aF1.0
aF1.0
aF1.0
aF1.0
aF0.0
aF0.0
aF0.0
aF0.0
aF0.8158
aF0.5092
aF0.8182
aF0.9549
aF0.0263
aF0.0153
aF0.0
aF0.0
aF0.0526
aF0.0258
aF0.0455
aF0.0011
aF0.0263
aF0.0072
aF0.0455
aF0.0011
aF0.0
aF0.0
aF0.0
aF0.0
aF0.0789
aF0.4425
aF0.0909
aF0.0429
aF0.0203
aF0.0161
aF0.0022
aF0.0118
aF0.9118
aF0.9933
aF0.0588
aF0.005
aF0.0
aF0.0
aF0.0294
aF0.0017
aF0.0
aF0.0
aF0.0
aF0.0
aF0.0
aF0.0
aF0.0
aF0.0
aF0.0
aF0.0
aF0.0
aF0.0
aF0.4815
aF0.6598
aF0.0
aF0.0
aF0.4444
aF0.3361
aF0.0
aF0.0
aF0.0741
aF0.004
asS'activity.cs.skdgdgrd'
p285
(lp286
F0.0
aF0.0
aF0.0
aF0.5
aF0.5
aF0.0
aF0.0
aF0.0
aF0.0
aF0.0
aF0.4286
aF0.5714
aF0.0
aF0.6364
aF0.3636
aF0.0
aF0.501
aF0.499
aF0.0
aF0.501
aF0.499
aF0.0
aF0.0
aF1.0
aF0.0
aF0.0
aF0.0
aF1.0
aF0.0
aF0.0
aF0.0
aF0.0
aF0.0
aF0.0
aF0.0
aF0.0
aF0.0
aF0.0
aF0.0
aF0.0
aF0.0
aF0.0
aF0.0
aF0.0
aF0.0
aF0.0
aF0.0
aF0.0
aF0.0
aF0.0
aF0.0
aF0.0
aF0.0
aF0.0
aF0.0
aF0.0
aF0.0
aF0.0
aF0.0
aF0.0
aF0.0
aF0.0
aF0.0
aF0.0
aF0.0
aF0.0
aF0.0
aF0.0
aF0.0
aF0.0
aF0.0
aF0.0
aF0.0
aF0.0
aF0.0
aF0.0
aF0.0
aF0.0
aF0.0
aF0.0
aF0.0
aF0.0
aF0.0
aF0.0
aF0.0
aF0.0
aF0.0
aF0.0
aF0.0
aF0.0
aF0.0
aF0.0
aF0.0
aF0.0
aF0.0
aF0.0
aF0.0
aF0.0
aF0.0
aF0.0
aF0.0
aF0.0
aF0.0
aF0.0
aF0.0
aF0.0
aF0.0
aF0.0
aF0.0
aF0.0
aF0.0
aF0.0
aF0.0
aF0.0
aF0.0
aF0.0
aF0.0
aF0.0
aF0.0
aF0.0
aF0.0
aF0.0
asS'com.KimonoCardigan.heidismith'
p287
(lp288
F0.939
aF0.0
aF0.0
aF0.0
aF0.0
aF0.0
aF0.0553
aF0.0
aF0.0057
aF0.0238
aF0.0
aF0.9762
aF0.0179
aF0.0
aF0.9821
aF0.0057
aF0.0
aF0.9943
aF0.0057
aF0.0
aF0.9943
aF0.5
aF0.0
aF0.5
aF0.0
aF0.7011
aF0.0
aF0.2989
aF0.0
aF0.0
aF0.0
aF0.0
aF0.0
aF0.0
aF0.0
aF0.0
aF0.1187
aF0.0801
aF0.2299
aF0.0538
aF0.25
aF0.7778
aF0.0613
aF0.5499
aF0.0
aF0.0
aF0.0
aF0.0
aF0.0
aF0.0
aF0.0
aF0.0
aF0.0
aF0.0
aF0.0
aF0.0
aF0.975
aF0.9938
aF1.0
aF1.0
aF0.025
aF0.0062
aF0.0
aF0.0
aF0.9259
aF0.9211
aF0.9524
aF0.9522
aF0.0
aF0.0
aF0.0
aF0.0
aF0.0741
aF0.0789
aF0.0476
aF0.0478
aF0.0
aF0.0
aF0.0
aF0.0
aF0.0
aF0.0
aF0.0
aF0.0
aF0.0
aF0.0
aF0.0
aF0.0
aF0.0059
aF0.003
aF0.0014
aF0.0014
aF1.0
aF1.0
aF0.0
aF0.0
aF0.0
aF0.0
aF0.0
aF0.0
aF0.0
aF0.0
aF0.0
aF0.0
aF1.0
aF1.0
aF0.0
aF0.0
aF0.0
aF0.0
aF0.0
aF0.0
aF0.0
aF0.0
aF0.0
aF0.0
aF0.0
aF0.0
aF0.0
aF0.0
aF0.0
aF0.0
asS'com.aaronbalderapps.simplepatiodesigns'
p289
(lp290
F0.9384
aF0.0
aF0.0
aF0.0
aF0.0
aF0.0
aF0.0559
aF0.0
aF0.0057
aF0.0238
aF0.0
aF0.9762
aF0.0179
aF0.0
aF0.9821
aF0.0058
aF0.0
aF0.9942
aF0.0058
aF0.0
aF0.9942
aF0.5
aF0.0
aF0.5
aF0.0
aF0.7
aF0.0
aF0.3
aF0.0
aF0.0
aF0.0
aF0.0
aF0.0
aF0.0
aF0.0
aF0.0
aF0.119
aF0.0804
aF0.2317
aF0.0545
aF0.25
aF0.7778
aF0.0616
aF0.5499
aF0.0
aF0.0
aF0.0
aF0.0
aF0.0
aF0.0
aF0.0
aF0.0
aF0.0
aF0.0
aF0.0
aF0.0
aF0.975
aF0.9938
aF1.0
aF1.0
aF0.025
aF0.0062
aF0.0
aF0.0
aF0.9259
aF0.9211
aF0.9524
aF0.9524
aF0.0
aF0.0
aF0.0
aF0.0
aF0.0741
aF0.0789
aF0.0476
aF0.0476
aF0.0
aF0.0
aF0.0
aF0.0
aF0.0
aF0.0
aF0.0
aF0.0
aF0.0
aF0.0
aF0.0
aF0.0
aF0.006
aF0.003
aF0.0014
aF0.0014
aF1.0
aF1.0
aF0.0
aF0.0
aF0.0
aF0.0
aF0.0
aF0.0
aF0.0
aF0.0
aF0.0
aF0.0
aF1.0
aF1.0
aF0.0
aF0.0
aF0.0
aF0.0
aF0.0
aF0.0
aF0.0
aF0.0
aF0.0
aF0.0
aF0.0
aF0.0
aF0.0
aF0.0
aF0.0
aF0.0
asS'com.arroyaapps.apartmentdesignideas'
p291
(lp292
F0.9395
aF0.0
aF0.0
aF0.0
aF0.0
aF0.0
aF0.0549
aF0.0
aF0.0056
aF0.0238
aF0.0
aF0.9762
aF0.0179
aF0.0
aF0.9821
aF0.0057
aF0.0
aF0.9943
aF0.0057
aF0.0
aF0.9943
aF0.5
aF0.0
aF0.5
aF0.0
aF0.6998
aF0.0
aF0.3002
aF0.0
aF0.0
aF0.0
aF0.0
aF0.0
aF0.0
aF0.0
aF0.0
aF0.1187
aF0.0801
aF0.2299
aF0.0537
aF0.25
aF0.7778
aF0.0613
aF0.5503
aF0.0
aF0.0
aF0.0
aF0.0
aF0.0
aF0.0
aF0.0
aF0.0
aF0.0
aF0.0
aF0.0
aF0.0
aF0.975
aF0.9938
aF1.0
aF1.0
aF0.025
aF0.0062
aF0.0
aF0.0
aF0.9259
aF0.9209
aF0.9524
aF0.9523
aF0.0
aF0.0
aF0.0
aF0.0
aF0.0741
aF0.0791
aF0.0476
aF0.0477
aF0.0
aF0.0
aF0.0
aF0.0
aF0.0
aF0.0
aF0.0
aF0.0
aF0.0
aF0.0
aF0.0
aF0.0
aF0.0059
aF0.003
aF0.0014
aF0.0014
aF1.0
aF1.0
aF0.0
aF0.0
aF0.0
aF0.0
aF0.0
aF0.0
aF0.0
aF0.0
aF0.0
aF0.0
aF1.0
aF1.0
aF0.0
aF0.0
aF0.0
aF0.0
aF0.0
aF0.0
aF0.0
aF0.0
aF0.0
aF0.0
aF0.0
aF0.0
aF0.0
aF0.0
aF0.0
aF0.0
as(dp293
g229
S'trojan.iframe.kx'
p294
sg1
S'ramnit'
p295
sg3
S'ramnit'
p296
sg5
S'mobi'
p297
sg7
S'ramnit'
p298
sg9
S'smspay'
p299
sg11
S'ramnit'
p300
sg13
S'ramnit'
p301
sg91
S'ramnit'
p302
sg17
S'ramnit'
p303
sg19
S'ramnit'
p304
sg21
S'trojan.iframe.kx'
p305
sg23
S'trojan.iframe.kx'
p306
sg25
S'ramnit'
p307
sg27
S'ramnit'
p308
sg93
S'ramnit'
p309
sg31
S'mobi'
p310
sg33
S'ramnit'
p311
sg35
S'mobi'
p312
sg37
S'ramnit'
p313
sg39
S'ramnit'
p314
sg41
S'trojan.iframe.kx'
p315
sg43
S'ramnit'
p316
sg45
S'ramnit'
p317
sg47
S'trojan.iframe.kx'
p318
sg49
S'trojan.iframe.kx'
p319
sg203
S'trojan.iframe.kx'
p320
sg53
S'ramnit'
p321
sg55
S'trojan.iframe.kx'
p322
sg121
S'ramnit'
p323
sg59
S'smspay'
p324
sg61
S'mobi'
p325
sg63
S'trojan.iframe.kx'
p326
sg65
S'ramnit'
p327
sg67
S'ramnit'
p328
sg69
S'ramnit'
p329
sg71
S'ramnit'
p330
sg73
S'mobi'
p331
sg211
S'ramnit'
p332
sg77
S'ramnit'
p333
sg81
S'trojan.iframe.kx'
p334
sg83
S'trojan.iframe.kx'
p335
sg85
S'trojan.iframe.kx'
p336
sg87
S'ramnit'
p337
sg89
S'ramnit'
p338
sg15
S'ramnit'
p339
sg29
S'eicar'
p340
sg95
S'ramnit'
p341
sg97
S'ramnit'
p342
sg99
S'ramnit'
p343
sg283
S'ramnit'
p344
sg101
S'trojan.iframe.kx'
p345
sg103
S'mobi'
p346
sg105
S'ramnit'
p347
sg107
S'mobi'
p348
sg109
S'ramnit'
p349
sg119
S'ramnit'
p350
sg113
S'trojan.iframe.kx'
p351
sg115
S'trojan.iframe.kx'
p352
sg117
S'mobi'
p353
sg111
S'trojan.iframe.kx'
p354
sg57
S'smspay'
p355
sg123
S'ramnit'
p356
sg125
S'trojan.iframe.kx'
p357
sg127
S'ramnit'
p358
sg129
S'ramnit'
p359
sg131
S'trojan.iframe.kx'
p360
sg133
S'trojan.iframe.kx'
p361
sg135
S'ramnit'
p362
sg137
S'ramnit'
p363
sg139
S'trojan.iframe.kx'
p364
sg141
S'ramnit'
p365
sg143
S'trojan.iframe.kx'
p366
sg147
S'ramnit'
p367
sg149
S'ramnit'
p368
sg151
S'mobi'
p369
sg153
S'ramnit'
p370
sg155
S'ramnit'
p371
sg157
S'mobi'
p372
sg159
S'ramnit'
p373
sg161
S'ramnit'
p374
sg163
S'ramnit'
p375
sg165
S'ramnit'
p376
sg167
S'ramnit'
p377
sg169
S'mobi'
p378
sg171
S'ramnit'
p379
sg173
S'ramnit'
p380
sg175
S'mobi'
p381
sg177
S'ramnit'
p382
sg179
S'trojan.iframe.kx'
p383
sg181
S'smspay'
p384
sg183
S'mobi'
p385
sg185
S'trojan.iframe.kx'
p386
sg187
S'ramnit'
p387
sg189
S'smspay'
p388
sg191
S'ramnit'
p389
sg193
S'ramnit'
p390
sg195
S'ramnit'
p391
sg197
S'ramnit'
p392
sg199
S'mobi'
p393
sg201
S'ramnit'
p394
sg51
S'ramnit'
p395
sg205
S'ramnit'
p396
sg207
S'mobi'
p397
sg209
S'trojan.iframe.kx'
p398
sg75
S'ramnit'
p399
sg213
S'ramnit'
p400
sg215
S'ramnit'
p401
sg217
S'trojan.js.iframe.avt'
p402
sg219
S'ramnit'
p403
sg221
S'ramnit'
p404
sg227
S'ramnit'
p405
sg225
S'ramnit'
p406
sg223
S'smspay'
p407
sg145
S'mobi'
p408
sg231
S'ramnit'
p409
sg233
S'ramnit'
p410
sg235
S'smspay'
p411
sg237
S'ramnit'
p412
sg239
S'ramnit'
p413
sg241
S'ramnit'
p414
sg281
S'trojan.iframe.kx'
p415
sg245
S'trojan.iframe.kx'
p416
sg247
S'trojan.iframe.kx'
p417
sg249
S'trojan.iframe.kx'
p418
sg251
S'ramnit'
p419
sg253
S'ramnit'
p420
sg255
S'ramnit'
p421
sg257
S'ramnit'
p422
sg259
S'trojan.iframe.kx'
p423
sg261
S'trojan.iframe.kx'
p424
sg263
S'ramnit'
p425
sg265
S'trojan.iframe.kx'
p426
sg267
S'trojan.js.iframe.avt'
p427
sg269
S'trojan.iframe.kx'
p428
sg271
S'ramnit'
p429
sg273
S'ramnit'
p430
sg275
S'mobi'
p431
sg277
S'ramnit'
p432
sg279
S'ramnit'
p433
sg243
S'ramnit'
p434
sg79
S'ramnit'
p435
sg285
S'mobi'
p436
sg287
S'ramnit'
p437
sg289
S'trojan.iframe.kx'
p438
sg291
S'trojan.iframe.kx'
p439
stp440
.